
Sensor.elf:     file format elf32-littlearm

Sections:
Idx Name          Size      VMA       LMA       File off  Algn
  0 .isr_vector   0000013c  08000000  08000000  00010000  2**0
                  CONTENTS, ALLOC, LOAD, READONLY, DATA
  1 .text         00002998  0800013c  0800013c  0001013c  2**2
                  CONTENTS, ALLOC, LOAD, READONLY, CODE
  2 .rodata       000000d0  08002ad4  08002ad4  00012ad4  2**2
                  CONTENTS, ALLOC, LOAD, READONLY, DATA
  3 .ARM.extab    00000000  08002ba4  08002ba4  00020070  2**0
                  CONTENTS
  4 .ARM          00000000  08002ba4  08002ba4  00020070  2**0
                  CONTENTS
  5 .preinit_array 00000000  08002ba4  08002ba4  00020070  2**0
                  CONTENTS, ALLOC, LOAD, DATA
  6 .init_array   00000004  08002ba4  08002ba4  00012ba4  2**2
                  CONTENTS, ALLOC, LOAD, DATA
  7 .fini_array   00000004  08002ba8  08002ba8  00012ba8  2**2
                  CONTENTS, ALLOC, LOAD, DATA
  8 .data         00000070  20000000  08002bac  00020000  2**2
                  CONTENTS, ALLOC, LOAD, DATA
  9 .bss          000000ec  20000070  08002c1c  00020070  2**2
                  ALLOC
 10 ._user_heap_stack 00000604  2000015c  08002c1c  0002015c  2**0
                  ALLOC
 11 .ARM.attributes 00000029  00000000  00000000  00020070  2**0
                  CONTENTS, READONLY
 12 .comment      0000007b  00000000  00000000  00020099  2**0
                  CONTENTS, READONLY
 13 .debug_frame  0000075c  00000000  00000000  00020114  2**2
                  CONTENTS, READONLY, DEBUGGING

Disassembly of section .text:

0800013c <__do_global_dtors_aux>:
 800013c:	b510      	push	{r4, lr}
 800013e:	4c05      	ldr	r4, [pc, #20]	; (8000154 <__do_global_dtors_aux+0x18>)
 8000140:	7823      	ldrb	r3, [r4, #0]
 8000142:	b933      	cbnz	r3, 8000152 <__do_global_dtors_aux+0x16>
 8000144:	4b04      	ldr	r3, [pc, #16]	; (8000158 <__do_global_dtors_aux+0x1c>)
 8000146:	b113      	cbz	r3, 800014e <__do_global_dtors_aux+0x12>
 8000148:	4804      	ldr	r0, [pc, #16]	; (800015c <__do_global_dtors_aux+0x20>)
 800014a:	f3af 8000 	nop.w
 800014e:	2301      	movs	r3, #1
 8000150:	7023      	strb	r3, [r4, #0]
 8000152:	bd10      	pop	{r4, pc}
 8000154:	20000070 	.word	0x20000070
 8000158:	00000000 	.word	0x00000000
 800015c:	08002abc 	.word	0x08002abc

08000160 <frame_dummy>:
 8000160:	b508      	push	{r3, lr}
 8000162:	4b03      	ldr	r3, [pc, #12]	; (8000170 <frame_dummy+0x10>)
 8000164:	b11b      	cbz	r3, 800016e <frame_dummy+0xe>
 8000166:	4903      	ldr	r1, [pc, #12]	; (8000174 <frame_dummy+0x14>)
 8000168:	4803      	ldr	r0, [pc, #12]	; (8000178 <frame_dummy+0x18>)
 800016a:	f3af 8000 	nop.w
 800016e:	bd08      	pop	{r3, pc}
 8000170:	00000000 	.word	0x00000000
 8000174:	20000074 	.word	0x20000074
 8000178:	08002abc 	.word	0x08002abc

0800017c <HAL_InitTick>:
 800017c:	b538      	push	{r3, r4, r5, lr}
 800017e:	4b0f      	ldr	r3, [pc, #60]	; (80001bc <HAL_InitTick+0x40>)
 8000180:	681b      	ldr	r3, [r3, #0]
 8000182:	b90b      	cbnz	r3, 8000188 <HAL_InitTick+0xc>
 8000184:	2001      	movs	r0, #1
 8000186:	bd38      	pop	{r3, r4, r5, pc}
 8000188:	f44f 727a 	mov.w	r2, #1000	; 0x3e8
 800018c:	fbb2 f3f3 	udiv	r3, r2, r3
 8000190:	4a0b      	ldr	r2, [pc, #44]	; (80001c0 <HAL_InitTick+0x44>)
 8000192:	4605      	mov	r5, r0
 8000194:	6810      	ldr	r0, [r2, #0]
 8000196:	fbb0 f0f3 	udiv	r0, r0, r3
 800019a:	f000 f891 	bl	80002c0 <HAL_SYSTICK_Config>
 800019e:	4604      	mov	r4, r0
 80001a0:	2800      	cmp	r0, #0
 80001a2:	d1ef      	bne.n	8000184 <HAL_InitTick+0x8>
 80001a4:	2d0f      	cmp	r5, #15
 80001a6:	d8ed      	bhi.n	8000184 <HAL_InitTick+0x8>
 80001a8:	4602      	mov	r2, r0
 80001aa:	4629      	mov	r1, r5
 80001ac:	f04f 30ff 	mov.w	r0, #4294967295	; 0xffffffff
 80001b0:	f000 f842 	bl	8000238 <HAL_NVIC_SetPriority>
 80001b4:	4b03      	ldr	r3, [pc, #12]	; (80001c4 <HAL_InitTick+0x48>)
 80001b6:	4620      	mov	r0, r4
 80001b8:	601d      	str	r5, [r3, #0]
 80001ba:	bd38      	pop	{r3, r4, r5, pc}
 80001bc:	20000000 	.word	0x20000000
 80001c0:	20000008 	.word	0x20000008
 80001c4:	20000004 	.word	0x20000004

080001c8 <HAL_Init>:
 80001c8:	b500      	push	{lr}
 80001ca:	2003      	movs	r0, #3
 80001cc:	b083      	sub	sp, #12
 80001ce:	f000 f821 	bl	8000214 <HAL_NVIC_SetPriorityGrouping>
 80001d2:	2000      	movs	r0, #0
 80001d4:	f7ff ffd2 	bl	800017c <HAL_InitTick>
 80001d8:	b118      	cbz	r0, 80001e2 <HAL_Init+0x1a>
 80001da:	2001      	movs	r0, #1
 80001dc:	b003      	add	sp, #12
 80001de:	f85d fb04 	ldr.w	pc, [sp], #4
 80001e2:	9001      	str	r0, [sp, #4]
 80001e4:	f001 fbbc 	bl	8001960 <HAL_MspInit>
 80001e8:	9801      	ldr	r0, [sp, #4]
 80001ea:	b003      	add	sp, #12
 80001ec:	f85d fb04 	ldr.w	pc, [sp], #4

080001f0 <HAL_IncTick>:
 80001f0:	4a03      	ldr	r2, [pc, #12]	; (8000200 <HAL_IncTick+0x10>)
 80001f2:	4904      	ldr	r1, [pc, #16]	; (8000204 <HAL_IncTick+0x14>)
 80001f4:	6813      	ldr	r3, [r2, #0]
 80001f6:	6809      	ldr	r1, [r1, #0]
 80001f8:	440b      	add	r3, r1
 80001fa:	6013      	str	r3, [r2, #0]
 80001fc:	4770      	bx	lr
 80001fe:	bf00      	nop
 8000200:	2000009c 	.word	0x2000009c
 8000204:	20000000 	.word	0x20000000

08000208 <HAL_GetTick>:
 8000208:	4b01      	ldr	r3, [pc, #4]	; (8000210 <HAL_GetTick+0x8>)
 800020a:	6818      	ldr	r0, [r3, #0]
 800020c:	4770      	bx	lr
 800020e:	bf00      	nop
 8000210:	2000009c 	.word	0x2000009c

08000214 <HAL_NVIC_SetPriorityGrouping>:
 8000214:	f64f 01ff 	movw	r1, #63743	; 0xf8ff
 8000218:	4a06      	ldr	r2, [pc, #24]	; (8000234 <HAL_NVIC_SetPriorityGrouping+0x20>)
 800021a:	0200      	lsls	r0, r0, #8
 800021c:	68d3      	ldr	r3, [r2, #12]
 800021e:	f400 60e0 	and.w	r0, r0, #1792	; 0x700
 8000222:	400b      	ands	r3, r1
 8000224:	f043 63bf 	orr.w	r3, r3, #100139008	; 0x5f80000
 8000228:	f443 3300 	orr.w	r3, r3, #131072	; 0x20000
 800022c:	4303      	orrs	r3, r0
 800022e:	60d3      	str	r3, [r2, #12]
 8000230:	4770      	bx	lr
 8000232:	bf00      	nop
 8000234:	e000ed00 	.word	0xe000ed00

08000238 <HAL_NVIC_SetPriority>:
 8000238:	4b18      	ldr	r3, [pc, #96]	; (800029c <HAL_NVIC_SetPriority+0x64>)
 800023a:	b430      	push	{r4, r5}
 800023c:	68db      	ldr	r3, [r3, #12]
 800023e:	f3c3 2302 	ubfx	r3, r3, #8, #3
 8000242:	f1c3 0507 	rsb	r5, r3, #7
 8000246:	2d04      	cmp	r5, #4
 8000248:	f103 0404 	add.w	r4, r3, #4
 800024c:	bf28      	it	cs
 800024e:	2504      	movcs	r5, #4
 8000250:	2c06      	cmp	r4, #6
 8000252:	d919      	bls.n	8000288 <HAL_NVIC_SetPriority+0x50>
 8000254:	f04f 34ff 	mov.w	r4, #4294967295	; 0xffffffff
 8000258:	3b03      	subs	r3, #3
 800025a:	409c      	lsls	r4, r3
 800025c:	ea22 0404 	bic.w	r4, r2, r4
 8000260:	f04f 32ff 	mov.w	r2, #4294967295	; 0xffffffff
 8000264:	40aa      	lsls	r2, r5
 8000266:	ea21 0102 	bic.w	r1, r1, r2
 800026a:	fa01 f203 	lsl.w	r2, r1, r3
 800026e:	4322      	orrs	r2, r4
 8000270:	0112      	lsls	r2, r2, #4
 8000272:	2800      	cmp	r0, #0
 8000274:	b2d2      	uxtb	r2, r2
 8000276:	db0a      	blt.n	800028e <HAL_NVIC_SetPriority+0x56>
 8000278:	f100 4060 	add.w	r0, r0, #3758096384	; 0xe0000000
 800027c:	f500 4061 	add.w	r0, r0, #57600	; 0xe100
 8000280:	f880 2300 	strb.w	r2, [r0, #768]	; 0x300
 8000284:	bc30      	pop	{r4, r5}
 8000286:	4770      	bx	lr
 8000288:	2400      	movs	r4, #0
 800028a:	4623      	mov	r3, r4
 800028c:	e7e8      	b.n	8000260 <HAL_NVIC_SetPriority+0x28>
 800028e:	4b04      	ldr	r3, [pc, #16]	; (80002a0 <HAL_NVIC_SetPriority+0x68>)
 8000290:	f000 000f 	and.w	r0, r0, #15
 8000294:	4403      	add	r3, r0
 8000296:	761a      	strb	r2, [r3, #24]
 8000298:	bc30      	pop	{r4, r5}
 800029a:	4770      	bx	lr
 800029c:	e000ed00 	.word	0xe000ed00
 80002a0:	e000ecfc 	.word	0xe000ecfc

080002a4 <HAL_NVIC_EnableIRQ>:
 80002a4:	2800      	cmp	r0, #0
 80002a6:	db07      	blt.n	80002b8 <HAL_NVIC_EnableIRQ+0x14>
 80002a8:	2301      	movs	r3, #1
 80002aa:	f000 011f 	and.w	r1, r0, #31
 80002ae:	4a03      	ldr	r2, [pc, #12]	; (80002bc <HAL_NVIC_EnableIRQ+0x18>)
 80002b0:	408b      	lsls	r3, r1
 80002b2:	0940      	lsrs	r0, r0, #5
 80002b4:	f842 3020 	str.w	r3, [r2, r0, lsl #2]
 80002b8:	4770      	bx	lr
 80002ba:	bf00      	nop
 80002bc:	e000e100 	.word	0xe000e100

080002c0 <HAL_SYSTICK_Config>:
 80002c0:	3801      	subs	r0, #1
 80002c2:	f1b0 7f80 	cmp.w	r0, #16777216	; 0x1000000
 80002c6:	d20d      	bcs.n	80002e4 <HAL_SYSTICK_Config+0x24>
 80002c8:	b430      	push	{r4, r5}
 80002ca:	25f0      	movs	r5, #240	; 0xf0
 80002cc:	2200      	movs	r2, #0
 80002ce:	2107      	movs	r1, #7
 80002d0:	4b05      	ldr	r3, [pc, #20]	; (80002e8 <HAL_SYSTICK_Config+0x28>)
 80002d2:	4c06      	ldr	r4, [pc, #24]	; (80002ec <HAL_SYSTICK_Config+0x2c>)
 80002d4:	6058      	str	r0, [r3, #4]
 80002d6:	f884 5023 	strb.w	r5, [r4, #35]	; 0x23
 80002da:	4610      	mov	r0, r2
 80002dc:	bc30      	pop	{r4, r5}
 80002de:	609a      	str	r2, [r3, #8]
 80002e0:	6019      	str	r1, [r3, #0]
 80002e2:	4770      	bx	lr
 80002e4:	2001      	movs	r0, #1
 80002e6:	4770      	bx	lr
 80002e8:	e000e010 	.word	0xe000e010
 80002ec:	e000ed00 	.word	0xe000ed00

080002f0 <HAL_GPIO_Init>:
 80002f0:	e92d 4ff0 	stmdb	sp!, {r4, r5, r6, r7, r8, r9, sl, fp, lr}
 80002f4:	f8d1 e000 	ldr.w	lr, [r1]
 80002f8:	b083      	sub	sp, #12
 80002fa:	f1be 0f00 	cmp.w	lr, #0
 80002fe:	f000 8087 	beq.w	8000410 <HAL_GPIO_Init+0x120>
 8000302:	4688      	mov	r8, r1
 8000304:	2500      	movs	r5, #0
 8000306:	f8df 91cc 	ldr.w	r9, [pc, #460]	; 80004d4 <HAL_GPIO_Init+0x1e4>
 800030a:	2301      	movs	r3, #1
 800030c:	40ab      	lsls	r3, r5
 800030e:	ea13 060e 	ands.w	r6, r3, lr
 8000312:	d078      	beq.n	8000406 <HAL_GPIO_Init+0x116>
 8000314:	f8d8 1004 	ldr.w	r1, [r8, #4]
 8000318:	2203      	movs	r2, #3
 800031a:	f021 0c10 	bic.w	ip, r1, #16
 800031e:	f1bc 0f02 	cmp.w	ip, #2
 8000322:	d078      	beq.n	8000416 <HAL_GPIO_Init+0x126>
 8000324:	006f      	lsls	r7, r5, #1
 8000326:	40ba      	lsls	r2, r7
 8000328:	43d2      	mvns	r2, r2
 800032a:	f8d0 a000 	ldr.w	sl, [r0]
 800032e:	f001 0403 	and.w	r4, r1, #3
 8000332:	ea02 0a0a 	and.w	sl, r2, sl
 8000336:	40bc      	lsls	r4, r7
 8000338:	f10c 3cff 	add.w	ip, ip, #4294967295	; 0xffffffff
 800033c:	ea44 040a 	orr.w	r4, r4, sl
 8000340:	f1bc 0f01 	cmp.w	ip, #1
 8000344:	6004      	str	r4, [r0, #0]
 8000346:	f240 808a 	bls.w	800045e <HAL_GPIO_Init+0x16e>
 800034a:	68c4      	ldr	r4, [r0, #12]
 800034c:	f8d8 3008 	ldr.w	r3, [r8, #8]
 8000350:	4022      	ands	r2, r4
 8000352:	40bb      	lsls	r3, r7
 8000354:	4313      	orrs	r3, r2
 8000356:	00cf      	lsls	r7, r1, #3
 8000358:	60c3      	str	r3, [r0, #12]
 800035a:	d554      	bpl.n	8000406 <HAL_GPIO_Init+0x116>
 800035c:	240f      	movs	r4, #15
 800035e:	4f56      	ldr	r7, [pc, #344]	; (80004b8 <HAL_GPIO_Init+0x1c8>)
 8000360:	f025 0303 	bic.w	r3, r5, #3
 8000364:	6a3a      	ldr	r2, [r7, #32]
 8000366:	f103 4380 	add.w	r3, r3, #1073741824	; 0x40000000
 800036a:	f042 0201 	orr.w	r2, r2, #1
 800036e:	623a      	str	r2, [r7, #32]
 8000370:	6a3a      	ldr	r2, [r7, #32]
 8000372:	f503 3380 	add.w	r3, r3, #65536	; 0x10000
 8000376:	f002 0201 	and.w	r2, r2, #1
 800037a:	9201      	str	r2, [sp, #4]
 800037c:	f005 0203 	and.w	r2, r5, #3
 8000380:	9f01      	ldr	r7, [sp, #4]
 8000382:	0092      	lsls	r2, r2, #2
 8000384:	689f      	ldr	r7, [r3, #8]
 8000386:	4094      	lsls	r4, r2
 8000388:	ea27 0404 	bic.w	r4, r7, r4
 800038c:	4f4b      	ldr	r7, [pc, #300]	; (80004bc <HAL_GPIO_Init+0x1cc>)
 800038e:	42b8      	cmp	r0, r7
 8000390:	d017      	beq.n	80003c2 <HAL_GPIO_Init+0xd2>
 8000392:	f507 6780 	add.w	r7, r7, #1024	; 0x400
 8000396:	42b8      	cmp	r0, r7
 8000398:	d079      	beq.n	800048e <HAL_GPIO_Init+0x19e>
 800039a:	4f49      	ldr	r7, [pc, #292]	; (80004c0 <HAL_GPIO_Init+0x1d0>)
 800039c:	42b8      	cmp	r0, r7
 800039e:	d071      	beq.n	8000484 <HAL_GPIO_Init+0x194>
 80003a0:	4f48      	ldr	r7, [pc, #288]	; (80004c4 <HAL_GPIO_Init+0x1d4>)
 80003a2:	42b8      	cmp	r0, r7
 80003a4:	d07d      	beq.n	80004a2 <HAL_GPIO_Init+0x1b2>
 80003a6:	4f48      	ldr	r7, [pc, #288]	; (80004c8 <HAL_GPIO_Init+0x1d8>)
 80003a8:	42b8      	cmp	r0, r7
 80003aa:	d07f      	beq.n	80004ac <HAL_GPIO_Init+0x1bc>
 80003ac:	4f47      	ldr	r7, [pc, #284]	; (80004cc <HAL_GPIO_Init+0x1dc>)
 80003ae:	42b8      	cmp	r0, r7
 80003b0:	d072      	beq.n	8000498 <HAL_GPIO_Init+0x1a8>
 80003b2:	4f47      	ldr	r7, [pc, #284]	; (80004d0 <HAL_GPIO_Init+0x1e0>)
 80003b4:	42b8      	cmp	r0, r7
 80003b6:	bf0c      	ite	eq
 80003b8:	2706      	moveq	r7, #6
 80003ba:	2707      	movne	r7, #7
 80003bc:	fa07 f202 	lsl.w	r2, r7, r2
 80003c0:	4314      	orrs	r4, r2
 80003c2:	43f2      	mvns	r2, r6
 80003c4:	609c      	str	r4, [r3, #8]
 80003c6:	f8d9 3000 	ldr.w	r3, [r9]
 80003ca:	03cc      	lsls	r4, r1, #15
 80003cc:	bf54      	ite	pl
 80003ce:	4013      	andpl	r3, r2
 80003d0:	4333      	orrmi	r3, r6
 80003d2:	f8c9 3000 	str.w	r3, [r9]
 80003d6:	f8d9 3004 	ldr.w	r3, [r9, #4]
 80003da:	038f      	lsls	r7, r1, #14
 80003dc:	bf54      	ite	pl
 80003de:	4013      	andpl	r3, r2
 80003e0:	4333      	orrmi	r3, r6
 80003e2:	f8c9 3004 	str.w	r3, [r9, #4]
 80003e6:	f8d9 3008 	ldr.w	r3, [r9, #8]
 80003ea:	02cc      	lsls	r4, r1, #11
 80003ec:	bf54      	ite	pl
 80003ee:	4013      	andpl	r3, r2
 80003f0:	4333      	orrmi	r3, r6
 80003f2:	f8c9 3008 	str.w	r3, [r9, #8]
 80003f6:	f8d9 300c 	ldr.w	r3, [r9, #12]
 80003fa:	0289      	lsls	r1, r1, #10
 80003fc:	bf54      	ite	pl
 80003fe:	4013      	andpl	r3, r2
 8000400:	4333      	orrmi	r3, r6
 8000402:	f8c9 300c 	str.w	r3, [r9, #12]
 8000406:	3501      	adds	r5, #1
 8000408:	fa3e f305 	lsrs.w	r3, lr, r5
 800040c:	f47f af7d 	bne.w	800030a <HAL_GPIO_Init+0x1a>
 8000410:	b003      	add	sp, #12
 8000412:	e8bd 8ff0 	ldmia.w	sp!, {r4, r5, r6, r7, r8, r9, sl, fp, pc}
 8000416:	240f      	movs	r4, #15
 8000418:	006f      	lsls	r7, r5, #1
 800041a:	40ba      	lsls	r2, r7
 800041c:	43d2      	mvns	r2, r2
 800041e:	ea4f 0ad5 	mov.w	sl, r5, lsr #3
 8000422:	eb00 0a8a 	add.w	sl, r0, sl, lsl #2
 8000426:	f005 0c07 	and.w	ip, r5, #7
 800042a:	f8da b020 	ldr.w	fp, [sl, #32]
 800042e:	ea4f 0c8c 	mov.w	ip, ip, lsl #2
 8000432:	fa04 f40c 	lsl.w	r4, r4, ip
 8000436:	ea2b 0b04 	bic.w	fp, fp, r4
 800043a:	f8d8 4010 	ldr.w	r4, [r8, #16]
 800043e:	fa04 f40c 	lsl.w	r4, r4, ip
 8000442:	ea44 040b 	orr.w	r4, r4, fp
 8000446:	f8ca 4020 	str.w	r4, [sl, #32]
 800044a:	f8d0 c000 	ldr.w	ip, [r0]
 800044e:	f001 0403 	and.w	r4, r1, #3
 8000452:	ea02 0c0c 	and.w	ip, r2, ip
 8000456:	40bc      	lsls	r4, r7
 8000458:	ea44 040c 	orr.w	r4, r4, ip
 800045c:	6004      	str	r4, [r0, #0]
 800045e:	6884      	ldr	r4, [r0, #8]
 8000460:	ea02 0c04 	and.w	ip, r2, r4
 8000464:	f8d8 400c 	ldr.w	r4, [r8, #12]
 8000468:	40bc      	lsls	r4, r7
 800046a:	ea44 040c 	orr.w	r4, r4, ip
 800046e:	6084      	str	r4, [r0, #8]
 8000470:	f8d0 c004 	ldr.w	ip, [r0, #4]
 8000474:	f3c1 1400 	ubfx	r4, r1, #4, #1
 8000478:	ea2c 0303 	bic.w	r3, ip, r3
 800047c:	40ac      	lsls	r4, r5
 800047e:	431c      	orrs	r4, r3
 8000480:	6044      	str	r4, [r0, #4]
 8000482:	e762      	b.n	800034a <HAL_GPIO_Init+0x5a>
 8000484:	2702      	movs	r7, #2
 8000486:	fa07 f202 	lsl.w	r2, r7, r2
 800048a:	4314      	orrs	r4, r2
 800048c:	e799      	b.n	80003c2 <HAL_GPIO_Init+0xd2>
 800048e:	2701      	movs	r7, #1
 8000490:	fa07 f202 	lsl.w	r2, r7, r2
 8000494:	4314      	orrs	r4, r2
 8000496:	e794      	b.n	80003c2 <HAL_GPIO_Init+0xd2>
 8000498:	2705      	movs	r7, #5
 800049a:	fa07 f202 	lsl.w	r2, r7, r2
 800049e:	4314      	orrs	r4, r2
 80004a0:	e78f      	b.n	80003c2 <HAL_GPIO_Init+0xd2>
 80004a2:	2703      	movs	r7, #3
 80004a4:	fa07 f202 	lsl.w	r2, r7, r2
 80004a8:	4314      	orrs	r4, r2
 80004aa:	e78a      	b.n	80003c2 <HAL_GPIO_Init+0xd2>
 80004ac:	2704      	movs	r7, #4
 80004ae:	fa07 f202 	lsl.w	r2, r7, r2
 80004b2:	4314      	orrs	r4, r2
 80004b4:	e785      	b.n	80003c2 <HAL_GPIO_Init+0xd2>
 80004b6:	bf00      	nop
 80004b8:	40023800 	.word	0x40023800
 80004bc:	40020000 	.word	0x40020000
 80004c0:	40020800 	.word	0x40020800
 80004c4:	40020c00 	.word	0x40020c00
 80004c8:	40021000 	.word	0x40021000
 80004cc:	40021400 	.word	0x40021400
 80004d0:	40021800 	.word	0x40021800
 80004d4:	40010400 	.word	0x40010400

080004d8 <HAL_GPIO_WritePin>:
 80004d8:	b902      	cbnz	r2, 80004dc <HAL_GPIO_WritePin+0x4>
 80004da:	0409      	lsls	r1, r1, #16
 80004dc:	6181      	str	r1, [r0, #24]
 80004de:	4770      	bx	lr

080004e0 <HAL_GPIO_TogglePin>:
 80004e0:	6943      	ldr	r3, [r0, #20]
 80004e2:	420b      	tst	r3, r1
 80004e4:	bf18      	it	ne
 80004e6:	0409      	lslne	r1, r1, #16
 80004e8:	6181      	str	r1, [r0, #24]
 80004ea:	4770      	bx	lr

080004ec <HAL_GPIO_EXTI_IRQHandler>:
 80004ec:	4a04      	ldr	r2, [pc, #16]	; (8000500 <HAL_GPIO_EXTI_IRQHandler+0x14>)
 80004ee:	6951      	ldr	r1, [r2, #20]
 80004f0:	4201      	tst	r1, r0
 80004f2:	d100      	bne.n	80004f6 <HAL_GPIO_EXTI_IRQHandler+0xa>
 80004f4:	4770      	bx	lr
 80004f6:	b508      	push	{r3, lr}
 80004f8:	6150      	str	r0, [r2, #20]
 80004fa:	f001 fa25 	bl	8001948 <HAL_GPIO_EXTI_Callback>
 80004fe:	bd08      	pop	{r3, pc}
 8000500:	40010400 	.word	0x40010400

08000504 <HAL_RCC_OscConfig>:
 8000504:	2800      	cmp	r0, #0
 8000506:	f000 819b 	beq.w	8000840 <HAL_RCC_OscConfig+0x33c>
 800050a:	e92d 43f0 	stmdb	sp!, {r4, r5, r6, r7, r8, r9, lr}
 800050e:	4aa7      	ldr	r2, [pc, #668]	; (80007ac <HAL_RCC_OscConfig+0x2a8>)
 8000510:	6803      	ldr	r3, [r0, #0]
 8000512:	6895      	ldr	r5, [r2, #8]
 8000514:	6896      	ldr	r6, [r2, #8]
 8000516:	4604      	mov	r4, r0
 8000518:	07d8      	lsls	r0, r3, #31
 800051a:	b085      	sub	sp, #20
 800051c:	f005 050c 	and.w	r5, r5, #12
 8000520:	f406 3680 	and.w	r6, r6, #65536	; 0x10000
 8000524:	d52d      	bpl.n	8000582 <HAL_RCC_OscConfig+0x7e>
 8000526:	2d08      	cmp	r5, #8
 8000528:	f000 8135 	beq.w	8000796 <HAL_RCC_OscConfig+0x292>
 800052c:	2d0c      	cmp	r5, #12
 800052e:	f000 812f 	beq.w	8000790 <HAL_RCC_OscConfig+0x28c>
 8000532:	6863      	ldr	r3, [r4, #4]
 8000534:	2b01      	cmp	r3, #1
 8000536:	d00f      	beq.n	8000558 <HAL_RCC_OscConfig+0x54>
 8000538:	2b00      	cmp	r3, #0
 800053a:	f000 8183 	beq.w	8000844 <HAL_RCC_OscConfig+0x340>
 800053e:	2b05      	cmp	r3, #5
 8000540:	4b9a      	ldr	r3, [pc, #616]	; (80007ac <HAL_RCC_OscConfig+0x2a8>)
 8000542:	681a      	ldr	r2, [r3, #0]
 8000544:	f000 8209 	beq.w	800095a <HAL_RCC_OscConfig+0x456>
 8000548:	f422 3280 	bic.w	r2, r2, #65536	; 0x10000
 800054c:	601a      	str	r2, [r3, #0]
 800054e:	681a      	ldr	r2, [r3, #0]
 8000550:	f422 2280 	bic.w	r2, r2, #262144	; 0x40000
 8000554:	601a      	str	r2, [r3, #0]
 8000556:	e004      	b.n	8000562 <HAL_RCC_OscConfig+0x5e>
 8000558:	4a94      	ldr	r2, [pc, #592]	; (80007ac <HAL_RCC_OscConfig+0x2a8>)
 800055a:	6813      	ldr	r3, [r2, #0]
 800055c:	f443 3380 	orr.w	r3, r3, #65536	; 0x10000
 8000560:	6013      	str	r3, [r2, #0]
 8000562:	f7ff fe51 	bl	8000208 <HAL_GetTick>
 8000566:	4f91      	ldr	r7, [pc, #580]	; (80007ac <HAL_RCC_OscConfig+0x2a8>)
 8000568:	4680      	mov	r8, r0
 800056a:	e006      	b.n	800057a <HAL_RCC_OscConfig+0x76>
 800056c:	f7ff fe4c 	bl	8000208 <HAL_GetTick>
 8000570:	eba0 0008 	sub.w	r0, r0, r8
 8000574:	2864      	cmp	r0, #100	; 0x64
 8000576:	f200 815f 	bhi.w	8000838 <HAL_RCC_OscConfig+0x334>
 800057a:	683b      	ldr	r3, [r7, #0]
 800057c:	039a      	lsls	r2, r3, #14
 800057e:	d5f5      	bpl.n	800056c <HAL_RCC_OscConfig+0x68>
 8000580:	6823      	ldr	r3, [r4, #0]
 8000582:	0798      	lsls	r0, r3, #30
 8000584:	f100 809b 	bmi.w	80006be <HAL_RCC_OscConfig+0x1ba>
 8000588:	06df      	lsls	r7, r3, #27
 800058a:	d525      	bpl.n	80005d8 <HAL_RCC_OscConfig+0xd4>
 800058c:	2d00      	cmp	r5, #0
 800058e:	f000 80b8 	beq.w	8000702 <HAL_RCC_OscConfig+0x1fe>
 8000592:	69a3      	ldr	r3, [r4, #24]
 8000594:	2b00      	cmp	r3, #0
 8000596:	f000 8190 	beq.w	80008ba <HAL_RCC_OscConfig+0x3b6>
 800059a:	2201      	movs	r2, #1
 800059c:	4b84      	ldr	r3, [pc, #528]	; (80007b0 <HAL_RCC_OscConfig+0x2ac>)
 800059e:	4e83      	ldr	r6, [pc, #524]	; (80007ac <HAL_RCC_OscConfig+0x2a8>)
 80005a0:	601a      	str	r2, [r3, #0]
 80005a2:	f7ff fe31 	bl	8000208 <HAL_GetTick>
 80005a6:	4607      	mov	r7, r0
 80005a8:	e005      	b.n	80005b6 <HAL_RCC_OscConfig+0xb2>
 80005aa:	f7ff fe2d 	bl	8000208 <HAL_GetTick>
 80005ae:	1bc0      	subs	r0, r0, r7
 80005b0:	2802      	cmp	r0, #2
 80005b2:	f200 8141 	bhi.w	8000838 <HAL_RCC_OscConfig+0x334>
 80005b6:	6833      	ldr	r3, [r6, #0]
 80005b8:	059b      	lsls	r3, r3, #22
 80005ba:	d5f6      	bpl.n	80005aa <HAL_RCC_OscConfig+0xa6>
 80005bc:	6873      	ldr	r3, [r6, #4]
 80005be:	6a22      	ldr	r2, [r4, #32]
 80005c0:	f423 4360 	bic.w	r3, r3, #57344	; 0xe000
 80005c4:	4313      	orrs	r3, r2
 80005c6:	6073      	str	r3, [r6, #4]
 80005c8:	6873      	ldr	r3, [r6, #4]
 80005ca:	69e2      	ldr	r2, [r4, #28]
 80005cc:	f023 437f 	bic.w	r3, r3, #4278190080	; 0xff000000
 80005d0:	ea43 6302 	orr.w	r3, r3, r2, lsl #24
 80005d4:	6073      	str	r3, [r6, #4]
 80005d6:	6823      	ldr	r3, [r4, #0]
 80005d8:	0719      	lsls	r1, r3, #28
 80005da:	d515      	bpl.n	8000608 <HAL_RCC_OscConfig+0x104>
 80005dc:	6963      	ldr	r3, [r4, #20]
 80005de:	2b00      	cmp	r3, #0
 80005e0:	f000 8159 	beq.w	8000896 <HAL_RCC_OscConfig+0x392>
 80005e4:	2201      	movs	r2, #1
 80005e6:	4b73      	ldr	r3, [pc, #460]	; (80007b4 <HAL_RCC_OscConfig+0x2b0>)
 80005e8:	4e70      	ldr	r6, [pc, #448]	; (80007ac <HAL_RCC_OscConfig+0x2a8>)
 80005ea:	601a      	str	r2, [r3, #0]
 80005ec:	f7ff fe0c 	bl	8000208 <HAL_GetTick>
 80005f0:	4607      	mov	r7, r0
 80005f2:	e005      	b.n	8000600 <HAL_RCC_OscConfig+0xfc>
 80005f4:	f7ff fe08 	bl	8000208 <HAL_GetTick>
 80005f8:	1bc0      	subs	r0, r0, r7
 80005fa:	2802      	cmp	r0, #2
 80005fc:	f200 811c 	bhi.w	8000838 <HAL_RCC_OscConfig+0x334>
 8000600:	6b73      	ldr	r3, [r6, #52]	; 0x34
 8000602:	079a      	lsls	r2, r3, #30
 8000604:	d5f6      	bpl.n	80005f4 <HAL_RCC_OscConfig+0xf0>
 8000606:	6823      	ldr	r3, [r4, #0]
 8000608:	075e      	lsls	r6, r3, #29
 800060a:	d53a      	bpl.n	8000682 <HAL_RCC_OscConfig+0x17e>
 800060c:	4b67      	ldr	r3, [pc, #412]	; (80007ac <HAL_RCC_OscConfig+0x2a8>)
 800060e:	6a5a      	ldr	r2, [r3, #36]	; 0x24
 8000610:	00d0      	lsls	r0, r2, #3
 8000612:	f100 8150 	bmi.w	80008b6 <HAL_RCC_OscConfig+0x3b2>
 8000616:	2601      	movs	r6, #1
 8000618:	6a5a      	ldr	r2, [r3, #36]	; 0x24
 800061a:	f042 5280 	orr.w	r2, r2, #268435456	; 0x10000000
 800061e:	625a      	str	r2, [r3, #36]	; 0x24
 8000620:	6a5b      	ldr	r3, [r3, #36]	; 0x24
 8000622:	f003 5380 	and.w	r3, r3, #268435456	; 0x10000000
 8000626:	9301      	str	r3, [sp, #4]
 8000628:	9b01      	ldr	r3, [sp, #4]
 800062a:	4b63      	ldr	r3, [pc, #396]	; (80007b8 <HAL_RCC_OscConfig+0x2b4>)
 800062c:	681a      	ldr	r2, [r3, #0]
 800062e:	05d1      	lsls	r1, r2, #23
 8000630:	f140 80f0 	bpl.w	8000814 <HAL_RCC_OscConfig+0x310>
 8000634:	68a3      	ldr	r3, [r4, #8]
 8000636:	2b01      	cmp	r3, #1
 8000638:	f000 81c8 	beq.w	80009cc <HAL_RCC_OscConfig+0x4c8>
 800063c:	2b00      	cmp	r3, #0
 800063e:	f000 80c3 	beq.w	80007c8 <HAL_RCC_OscConfig+0x2c4>
 8000642:	2b05      	cmp	r3, #5
 8000644:	4b59      	ldr	r3, [pc, #356]	; (80007ac <HAL_RCC_OscConfig+0x2a8>)
 8000646:	6b5a      	ldr	r2, [r3, #52]	; 0x34
 8000648:	f000 81de 	beq.w	8000a08 <HAL_RCC_OscConfig+0x504>
 800064c:	f422 7280 	bic.w	r2, r2, #256	; 0x100
 8000650:	635a      	str	r2, [r3, #52]	; 0x34
 8000652:	6b5a      	ldr	r2, [r3, #52]	; 0x34
 8000654:	f422 6280 	bic.w	r2, r2, #1024	; 0x400
 8000658:	635a      	str	r2, [r3, #52]	; 0x34
 800065a:	f7ff fdd5 	bl	8000208 <HAL_GetTick>
 800065e:	4f53      	ldr	r7, [pc, #332]	; (80007ac <HAL_RCC_OscConfig+0x2a8>)
 8000660:	4681      	mov	r9, r0
 8000662:	f241 3888 	movw	r8, #5000	; 0x1388
 8000666:	e006      	b.n	8000676 <HAL_RCC_OscConfig+0x172>
 8000668:	f7ff fdce 	bl	8000208 <HAL_GetTick>
 800066c:	eba0 0009 	sub.w	r0, r0, r9
 8000670:	4540      	cmp	r0, r8
 8000672:	f200 80e1 	bhi.w	8000838 <HAL_RCC_OscConfig+0x334>
 8000676:	6b7b      	ldr	r3, [r7, #52]	; 0x34
 8000678:	059b      	lsls	r3, r3, #22
 800067a:	d5f5      	bpl.n	8000668 <HAL_RCC_OscConfig+0x164>
 800067c:	2e00      	cmp	r6, #0
 800067e:	f040 819f 	bne.w	80009c0 <HAL_RCC_OscConfig+0x4bc>
 8000682:	6a60      	ldr	r0, [r4, #36]	; 0x24
 8000684:	b1b8      	cbz	r0, 80006b6 <HAL_RCC_OscConfig+0x1b2>
 8000686:	2d0c      	cmp	r5, #12
 8000688:	f000 81a6 	beq.w	80009d8 <HAL_RCC_OscConfig+0x4d4>
 800068c:	2802      	cmp	r0, #2
 800068e:	f04f 0200 	mov.w	r2, #0
 8000692:	4b4a      	ldr	r3, [pc, #296]	; (80007bc <HAL_RCC_OscConfig+0x2b8>)
 8000694:	f000 8169 	beq.w	800096a <HAL_RCC_OscConfig+0x466>
 8000698:	601a      	str	r2, [r3, #0]
 800069a:	f7ff fdb5 	bl	8000208 <HAL_GetTick>
 800069e:	4c43      	ldr	r4, [pc, #268]	; (80007ac <HAL_RCC_OscConfig+0x2a8>)
 80006a0:	4605      	mov	r5, r0
 80006a2:	e005      	b.n	80006b0 <HAL_RCC_OscConfig+0x1ac>
 80006a4:	f7ff fdb0 	bl	8000208 <HAL_GetTick>
 80006a8:	1b40      	subs	r0, r0, r5
 80006aa:	2802      	cmp	r0, #2
 80006ac:	f200 80c4 	bhi.w	8000838 <HAL_RCC_OscConfig+0x334>
 80006b0:	6823      	ldr	r3, [r4, #0]
 80006b2:	019b      	lsls	r3, r3, #6
 80006b4:	d4f6      	bmi.n	80006a4 <HAL_RCC_OscConfig+0x1a0>
 80006b6:	2000      	movs	r0, #0
 80006b8:	b005      	add	sp, #20
 80006ba:	e8bd 83f0 	ldmia.w	sp!, {r4, r5, r6, r7, r8, r9, pc}
 80006be:	2d04      	cmp	r5, #4
 80006c0:	d05b      	beq.n	800077a <HAL_RCC_OscConfig+0x276>
 80006c2:	2d0c      	cmp	r5, #12
 80006c4:	d057      	beq.n	8000776 <HAL_RCC_OscConfig+0x272>
 80006c6:	68e3      	ldr	r3, [r4, #12]
 80006c8:	2b00      	cmp	r3, #0
 80006ca:	f000 80d3 	beq.w	8000874 <HAL_RCC_OscConfig+0x370>
 80006ce:	2201      	movs	r2, #1
 80006d0:	4b3b      	ldr	r3, [pc, #236]	; (80007c0 <HAL_RCC_OscConfig+0x2bc>)
 80006d2:	4e36      	ldr	r6, [pc, #216]	; (80007ac <HAL_RCC_OscConfig+0x2a8>)
 80006d4:	601a      	str	r2, [r3, #0]
 80006d6:	f7ff fd97 	bl	8000208 <HAL_GetTick>
 80006da:	4607      	mov	r7, r0
 80006dc:	e005      	b.n	80006ea <HAL_RCC_OscConfig+0x1e6>
 80006de:	f7ff fd93 	bl	8000208 <HAL_GetTick>
 80006e2:	1bc0      	subs	r0, r0, r7
 80006e4:	2802      	cmp	r0, #2
 80006e6:	f200 80a7 	bhi.w	8000838 <HAL_RCC_OscConfig+0x334>
 80006ea:	6833      	ldr	r3, [r6, #0]
 80006ec:	079a      	lsls	r2, r3, #30
 80006ee:	d5f6      	bpl.n	80006de <HAL_RCC_OscConfig+0x1da>
 80006f0:	6873      	ldr	r3, [r6, #4]
 80006f2:	6922      	ldr	r2, [r4, #16]
 80006f4:	f423 53f8 	bic.w	r3, r3, #7936	; 0x1f00
 80006f8:	ea43 2302 	orr.w	r3, r3, r2, lsl #8
 80006fc:	6073      	str	r3, [r6, #4]
 80006fe:	6823      	ldr	r3, [r4, #0]
 8000700:	e742      	b.n	8000588 <HAL_RCC_OscConfig+0x84>
 8000702:	4b2a      	ldr	r3, [pc, #168]	; (80007ac <HAL_RCC_OscConfig+0x2a8>)
 8000704:	681b      	ldr	r3, [r3, #0]
 8000706:	059e      	lsls	r6, r3, #22
 8000708:	d502      	bpl.n	8000710 <HAL_RCC_OscConfig+0x20c>
 800070a:	69a3      	ldr	r3, [r4, #24]
 800070c:	2b00      	cmp	r3, #0
 800070e:	d03b      	beq.n	8000788 <HAL_RCC_OscConfig+0x284>
 8000710:	4b26      	ldr	r3, [pc, #152]	; (80007ac <HAL_RCC_OscConfig+0x2a8>)
 8000712:	6a22      	ldr	r2, [r4, #32]
 8000714:	6859      	ldr	r1, [r3, #4]
 8000716:	f401 4160 	and.w	r1, r1, #57344	; 0xe000
 800071a:	428a      	cmp	r2, r1
 800071c:	f240 80de 	bls.w	80008dc <HAL_RCC_OscConfig+0x3d8>
 8000720:	6899      	ldr	r1, [r3, #8]
 8000722:	f011 0ff0 	tst.w	r1, #240	; 0xf0
 8000726:	d10b      	bne.n	8000740 <HAL_RCC_OscConfig+0x23c>
 8000728:	6a59      	ldr	r1, [r3, #36]	; 0x24
 800072a:	00c8      	lsls	r0, r1, #3
 800072c:	f140 8186 	bpl.w	8000a3c <HAL_RCC_OscConfig+0x538>
 8000730:	4b21      	ldr	r3, [pc, #132]	; (80007b8 <HAL_RCC_OscConfig+0x2b4>)
 8000732:	6819      	ldr	r1, [r3, #0]
 8000734:	f401 51c0 	and.w	r1, r1, #6144	; 0x1800
 8000738:	f5b1 5fc0 	cmp.w	r1, #6144	; 0x1800
 800073c:	f000 81b0 	beq.w	8000aa0 <HAL_RCC_OscConfig+0x59c>
 8000740:	2000      	movs	r0, #0
 8000742:	4920      	ldr	r1, [pc, #128]	; (80007c4 <HAL_RCC_OscConfig+0x2c0>)
 8000744:	680b      	ldr	r3, [r1, #0]
 8000746:	f023 0301 	bic.w	r3, r3, #1
 800074a:	4303      	orrs	r3, r0
 800074c:	600b      	str	r3, [r1, #0]
 800074e:	680b      	ldr	r3, [r1, #0]
 8000750:	f003 0301 	and.w	r3, r3, #1
 8000754:	4298      	cmp	r0, r3
 8000756:	d117      	bne.n	8000788 <HAL_RCC_OscConfig+0x284>
 8000758:	f5a1 6180 	sub.w	r1, r1, #1024	; 0x400
 800075c:	684b      	ldr	r3, [r1, #4]
 800075e:	f423 4360 	bic.w	r3, r3, #57344	; 0xe000
 8000762:	4313      	orrs	r3, r2
 8000764:	604b      	str	r3, [r1, #4]
 8000766:	684b      	ldr	r3, [r1, #4]
 8000768:	69e0      	ldr	r0, [r4, #28]
 800076a:	f023 437f 	bic.w	r3, r3, #4278190080	; 0xff000000
 800076e:	ea43 6300 	orr.w	r3, r3, r0, lsl #24
 8000772:	604b      	str	r3, [r1, #4]
 8000774:	e0db      	b.n	800092e <HAL_RCC_OscConfig+0x42a>
 8000776:	2e00      	cmp	r6, #0
 8000778:	d1a5      	bne.n	80006c6 <HAL_RCC_OscConfig+0x1c2>
 800077a:	4a0c      	ldr	r2, [pc, #48]	; (80007ac <HAL_RCC_OscConfig+0x2a8>)
 800077c:	6812      	ldr	r2, [r2, #0]
 800077e:	0791      	lsls	r1, r2, #30
 8000780:	d53f      	bpl.n	8000802 <HAL_RCC_OscConfig+0x2fe>
 8000782:	68e2      	ldr	r2, [r4, #12]
 8000784:	2a01      	cmp	r2, #1
 8000786:	d03c      	beq.n	8000802 <HAL_RCC_OscConfig+0x2fe>
 8000788:	2001      	movs	r0, #1
 800078a:	b005      	add	sp, #20
 800078c:	e8bd 83f0 	ldmia.w	sp!, {r4, r5, r6, r7, r8, r9, pc}
 8000790:	2e00      	cmp	r6, #0
 8000792:	f43f aece 	beq.w	8000532 <HAL_RCC_OscConfig+0x2e>
 8000796:	4a05      	ldr	r2, [pc, #20]	; (80007ac <HAL_RCC_OscConfig+0x2a8>)
 8000798:	6812      	ldr	r2, [r2, #0]
 800079a:	0391      	lsls	r1, r2, #14
 800079c:	f57f aef1 	bpl.w	8000582 <HAL_RCC_OscConfig+0x7e>
 80007a0:	6862      	ldr	r2, [r4, #4]
 80007a2:	2a00      	cmp	r2, #0
 80007a4:	f47f aeed 	bne.w	8000582 <HAL_RCC_OscConfig+0x7e>
 80007a8:	e7ee      	b.n	8000788 <HAL_RCC_OscConfig+0x284>
 80007aa:	bf00      	nop
 80007ac:	40023800 	.word	0x40023800
 80007b0:	42470020 	.word	0x42470020
 80007b4:	42470680 	.word	0x42470680
 80007b8:	40007000 	.word	0x40007000
 80007bc:	42470060 	.word	0x42470060
 80007c0:	42470000 	.word	0x42470000
 80007c4:	40023c00 	.word	0x40023c00
 80007c8:	4bab      	ldr	r3, [pc, #684]	; (8000a78 <HAL_RCC_OscConfig+0x574>)
 80007ca:	f241 3988 	movw	r9, #5000	; 0x1388
 80007ce:	6b5a      	ldr	r2, [r3, #52]	; 0x34
 80007d0:	461f      	mov	r7, r3
 80007d2:	f422 7280 	bic.w	r2, r2, #256	; 0x100
 80007d6:	635a      	str	r2, [r3, #52]	; 0x34
 80007d8:	6b5a      	ldr	r2, [r3, #52]	; 0x34
 80007da:	f422 6280 	bic.w	r2, r2, #1024	; 0x400
 80007de:	635a      	str	r2, [r3, #52]	; 0x34
 80007e0:	f7ff fd12 	bl	8000208 <HAL_GetTick>
 80007e4:	4680      	mov	r8, r0
 80007e6:	e005      	b.n	80007f4 <HAL_RCC_OscConfig+0x2f0>
 80007e8:	f7ff fd0e 	bl	8000208 <HAL_GetTick>
 80007ec:	eba0 0008 	sub.w	r0, r0, r8
 80007f0:	4548      	cmp	r0, r9
 80007f2:	d821      	bhi.n	8000838 <HAL_RCC_OscConfig+0x334>
 80007f4:	6b7b      	ldr	r3, [r7, #52]	; 0x34
 80007f6:	0598      	lsls	r0, r3, #22
 80007f8:	d4f6      	bmi.n	80007e8 <HAL_RCC_OscConfig+0x2e4>
 80007fa:	2e00      	cmp	r6, #0
 80007fc:	f43f af41 	beq.w	8000682 <HAL_RCC_OscConfig+0x17e>
 8000800:	e0de      	b.n	80009c0 <HAL_RCC_OscConfig+0x4bc>
 8000802:	499d      	ldr	r1, [pc, #628]	; (8000a78 <HAL_RCC_OscConfig+0x574>)
 8000804:	6920      	ldr	r0, [r4, #16]
 8000806:	684a      	ldr	r2, [r1, #4]
 8000808:	f422 52f8 	bic.w	r2, r2, #7936	; 0x1f00
 800080c:	ea42 2200 	orr.w	r2, r2, r0, lsl #8
 8000810:	604a      	str	r2, [r1, #4]
 8000812:	e6b9      	b.n	8000588 <HAL_RCC_OscConfig+0x84>
 8000814:	681a      	ldr	r2, [r3, #0]
 8000816:	461f      	mov	r7, r3
 8000818:	f442 7280 	orr.w	r2, r2, #256	; 0x100
 800081c:	601a      	str	r2, [r3, #0]
 800081e:	f7ff fcf3 	bl	8000208 <HAL_GetTick>
 8000822:	4680      	mov	r8, r0
 8000824:	683b      	ldr	r3, [r7, #0]
 8000826:	05da      	lsls	r2, r3, #23
 8000828:	f53f af04 	bmi.w	8000634 <HAL_RCC_OscConfig+0x130>
 800082c:	f7ff fcec 	bl	8000208 <HAL_GetTick>
 8000830:	eba0 0008 	sub.w	r0, r0, r8
 8000834:	2864      	cmp	r0, #100	; 0x64
 8000836:	d9f5      	bls.n	8000824 <HAL_RCC_OscConfig+0x320>
 8000838:	2003      	movs	r0, #3
 800083a:	b005      	add	sp, #20
 800083c:	e8bd 83f0 	ldmia.w	sp!, {r4, r5, r6, r7, r8, r9, pc}
 8000840:	2001      	movs	r0, #1
 8000842:	4770      	bx	lr
 8000844:	4b8c      	ldr	r3, [pc, #560]	; (8000a78 <HAL_RCC_OscConfig+0x574>)
 8000846:	681a      	ldr	r2, [r3, #0]
 8000848:	461f      	mov	r7, r3
 800084a:	f422 3280 	bic.w	r2, r2, #65536	; 0x10000
 800084e:	601a      	str	r2, [r3, #0]
 8000850:	681a      	ldr	r2, [r3, #0]
 8000852:	f422 2280 	bic.w	r2, r2, #262144	; 0x40000
 8000856:	601a      	str	r2, [r3, #0]
 8000858:	f7ff fcd6 	bl	8000208 <HAL_GetTick>
 800085c:	4680      	mov	r8, r0
 800085e:	e005      	b.n	800086c <HAL_RCC_OscConfig+0x368>
 8000860:	f7ff fcd2 	bl	8000208 <HAL_GetTick>
 8000864:	eba0 0008 	sub.w	r0, r0, r8
 8000868:	2864      	cmp	r0, #100	; 0x64
 800086a:	d8e5      	bhi.n	8000838 <HAL_RCC_OscConfig+0x334>
 800086c:	683b      	ldr	r3, [r7, #0]
 800086e:	039b      	lsls	r3, r3, #14
 8000870:	d4f6      	bmi.n	8000860 <HAL_RCC_OscConfig+0x35c>
 8000872:	e685      	b.n	8000580 <HAL_RCC_OscConfig+0x7c>
 8000874:	4a81      	ldr	r2, [pc, #516]	; (8000a7c <HAL_RCC_OscConfig+0x578>)
 8000876:	4e80      	ldr	r6, [pc, #512]	; (8000a78 <HAL_RCC_OscConfig+0x574>)
 8000878:	6013      	str	r3, [r2, #0]
 800087a:	f7ff fcc5 	bl	8000208 <HAL_GetTick>
 800087e:	4607      	mov	r7, r0
 8000880:	e004      	b.n	800088c <HAL_RCC_OscConfig+0x388>
 8000882:	f7ff fcc1 	bl	8000208 <HAL_GetTick>
 8000886:	1bc0      	subs	r0, r0, r7
 8000888:	2802      	cmp	r0, #2
 800088a:	d8d5      	bhi.n	8000838 <HAL_RCC_OscConfig+0x334>
 800088c:	6833      	ldr	r3, [r6, #0]
 800088e:	079b      	lsls	r3, r3, #30
 8000890:	d4f7      	bmi.n	8000882 <HAL_RCC_OscConfig+0x37e>
 8000892:	6823      	ldr	r3, [r4, #0]
 8000894:	e678      	b.n	8000588 <HAL_RCC_OscConfig+0x84>
 8000896:	4a7a      	ldr	r2, [pc, #488]	; (8000a80 <HAL_RCC_OscConfig+0x57c>)
 8000898:	4e77      	ldr	r6, [pc, #476]	; (8000a78 <HAL_RCC_OscConfig+0x574>)
 800089a:	6013      	str	r3, [r2, #0]
 800089c:	f7ff fcb4 	bl	8000208 <HAL_GetTick>
 80008a0:	4607      	mov	r7, r0
 80008a2:	e004      	b.n	80008ae <HAL_RCC_OscConfig+0x3aa>
 80008a4:	f7ff fcb0 	bl	8000208 <HAL_GetTick>
 80008a8:	1bc0      	subs	r0, r0, r7
 80008aa:	2802      	cmp	r0, #2
 80008ac:	d8c4      	bhi.n	8000838 <HAL_RCC_OscConfig+0x334>
 80008ae:	6b73      	ldr	r3, [r6, #52]	; 0x34
 80008b0:	079b      	lsls	r3, r3, #30
 80008b2:	d4f7      	bmi.n	80008a4 <HAL_RCC_OscConfig+0x3a0>
 80008b4:	e6a7      	b.n	8000606 <HAL_RCC_OscConfig+0x102>
 80008b6:	2600      	movs	r6, #0
 80008b8:	e6b7      	b.n	800062a <HAL_RCC_OscConfig+0x126>
 80008ba:	4a72      	ldr	r2, [pc, #456]	; (8000a84 <HAL_RCC_OscConfig+0x580>)
 80008bc:	4e6e      	ldr	r6, [pc, #440]	; (8000a78 <HAL_RCC_OscConfig+0x574>)
 80008be:	6013      	str	r3, [r2, #0]
 80008c0:	f7ff fca2 	bl	8000208 <HAL_GetTick>
 80008c4:	4607      	mov	r7, r0
 80008c6:	e004      	b.n	80008d2 <HAL_RCC_OscConfig+0x3ce>
 80008c8:	f7ff fc9e 	bl	8000208 <HAL_GetTick>
 80008cc:	1bc0      	subs	r0, r0, r7
 80008ce:	2802      	cmp	r0, #2
 80008d0:	d8b2      	bhi.n	8000838 <HAL_RCC_OscConfig+0x334>
 80008d2:	6833      	ldr	r3, [r6, #0]
 80008d4:	0598      	lsls	r0, r3, #22
 80008d6:	d4f7      	bmi.n	80008c8 <HAL_RCC_OscConfig+0x3c4>
 80008d8:	6823      	ldr	r3, [r4, #0]
 80008da:	e67d      	b.n	80005d8 <HAL_RCC_OscConfig+0xd4>
 80008dc:	6859      	ldr	r1, [r3, #4]
 80008de:	f421 4160 	bic.w	r1, r1, #57344	; 0xe000
 80008e2:	4311      	orrs	r1, r2
 80008e4:	6059      	str	r1, [r3, #4]
 80008e6:	6859      	ldr	r1, [r3, #4]
 80008e8:	69e0      	ldr	r0, [r4, #28]
 80008ea:	f021 417f 	bic.w	r1, r1, #4278190080	; 0xff000000
 80008ee:	ea41 6100 	orr.w	r1, r1, r0, lsl #24
 80008f2:	6059      	str	r1, [r3, #4]
 80008f4:	6899      	ldr	r1, [r3, #8]
 80008f6:	f011 0ff0 	tst.w	r1, #240	; 0xf0
 80008fa:	d10b      	bne.n	8000914 <HAL_RCC_OscConfig+0x410>
 80008fc:	6a59      	ldr	r1, [r3, #36]	; 0x24
 80008fe:	00c9      	lsls	r1, r1, #3
 8000900:	f140 808a 	bpl.w	8000a18 <HAL_RCC_OscConfig+0x514>
 8000904:	4b60      	ldr	r3, [pc, #384]	; (8000a88 <HAL_RCC_OscConfig+0x584>)
 8000906:	6819      	ldr	r1, [r3, #0]
 8000908:	f401 51c0 	and.w	r1, r1, #6144	; 0x1800
 800090c:	f5b1 5fc0 	cmp.w	r1, #6144	; 0x1800
 8000910:	f000 80a6 	beq.w	8000a60 <HAL_RCC_OscConfig+0x55c>
 8000914:	2000      	movs	r0, #0
 8000916:	495d      	ldr	r1, [pc, #372]	; (8000a8c <HAL_RCC_OscConfig+0x588>)
 8000918:	680b      	ldr	r3, [r1, #0]
 800091a:	f023 0301 	bic.w	r3, r3, #1
 800091e:	4303      	orrs	r3, r0
 8000920:	600b      	str	r3, [r1, #0]
 8000922:	680b      	ldr	r3, [r1, #0]
 8000924:	f003 0301 	and.w	r3, r3, #1
 8000928:	4298      	cmp	r0, r3
 800092a:	f47f af2d 	bne.w	8000788 <HAL_RCC_OscConfig+0x284>
 800092e:	f44f 4300 	mov.w	r3, #32768	; 0x8000
 8000932:	4951      	ldr	r1, [pc, #324]	; (8000a78 <HAL_RCC_OscConfig+0x574>)
 8000934:	4856      	ldr	r0, [pc, #344]	; (8000a90 <HAL_RCC_OscConfig+0x58c>)
 8000936:	6889      	ldr	r1, [r1, #8]
 8000938:	0b52      	lsrs	r2, r2, #13
 800093a:	f3c1 1103 	ubfx	r1, r1, #4, #4
 800093e:	5c40      	ldrb	r0, [r0, r1]
 8000940:	3201      	adds	r2, #1
 8000942:	4954      	ldr	r1, [pc, #336]	; (8000a94 <HAL_RCC_OscConfig+0x590>)
 8000944:	fa03 f202 	lsl.w	r2, r3, r2
 8000948:	4b53      	ldr	r3, [pc, #332]	; (8000a98 <HAL_RCC_OscConfig+0x594>)
 800094a:	40c2      	lsrs	r2, r0
 800094c:	6808      	ldr	r0, [r1, #0]
 800094e:	601a      	str	r2, [r3, #0]
 8000950:	f7ff fc14 	bl	800017c <HAL_InitTick>
 8000954:	2800      	cmp	r0, #0
 8000956:	d0bf      	beq.n	80008d8 <HAL_RCC_OscConfig+0x3d4>
 8000958:	e717      	b.n	800078a <HAL_RCC_OscConfig+0x286>
 800095a:	f442 2280 	orr.w	r2, r2, #262144	; 0x40000
 800095e:	601a      	str	r2, [r3, #0]
 8000960:	681a      	ldr	r2, [r3, #0]
 8000962:	f442 3280 	orr.w	r2, r2, #65536	; 0x10000
 8000966:	601a      	str	r2, [r3, #0]
 8000968:	e5fb      	b.n	8000562 <HAL_RCC_OscConfig+0x5e>
 800096a:	601a      	str	r2, [r3, #0]
 800096c:	f7ff fc4c 	bl	8000208 <HAL_GetTick>
 8000970:	4d41      	ldr	r5, [pc, #260]	; (8000a78 <HAL_RCC_OscConfig+0x574>)
 8000972:	4606      	mov	r6, r0
 8000974:	e005      	b.n	8000982 <HAL_RCC_OscConfig+0x47e>
 8000976:	f7ff fc47 	bl	8000208 <HAL_GetTick>
 800097a:	1b80      	subs	r0, r0, r6
 800097c:	2802      	cmp	r0, #2
 800097e:	f63f af5b 	bhi.w	8000838 <HAL_RCC_OscConfig+0x334>
 8000982:	682b      	ldr	r3, [r5, #0]
 8000984:	0199      	lsls	r1, r3, #6
 8000986:	d4f6      	bmi.n	8000976 <HAL_RCC_OscConfig+0x472>
 8000988:	2101      	movs	r1, #1
 800098a:	e9d4 300a 	ldrd	r3, r0, [r4, #40]	; 0x28
 800098e:	68aa      	ldr	r2, [r5, #8]
 8000990:	4303      	orrs	r3, r0
 8000992:	f422 027d 	bic.w	r2, r2, #16580608	; 0xfd0000
 8000996:	6b20      	ldr	r0, [r4, #48]	; 0x30
 8000998:	4313      	orrs	r3, r2
 800099a:	4a40      	ldr	r2, [pc, #256]	; (8000a9c <HAL_RCC_OscConfig+0x598>)
 800099c:	4303      	orrs	r3, r0
 800099e:	60ab      	str	r3, [r5, #8]
 80009a0:	6011      	str	r1, [r2, #0]
 80009a2:	f7ff fc31 	bl	8000208 <HAL_GetTick>
 80009a6:	4c34      	ldr	r4, [pc, #208]	; (8000a78 <HAL_RCC_OscConfig+0x574>)
 80009a8:	4605      	mov	r5, r0
 80009aa:	e005      	b.n	80009b8 <HAL_RCC_OscConfig+0x4b4>
 80009ac:	f7ff fc2c 	bl	8000208 <HAL_GetTick>
 80009b0:	1b40      	subs	r0, r0, r5
 80009b2:	2802      	cmp	r0, #2
 80009b4:	f63f af40 	bhi.w	8000838 <HAL_RCC_OscConfig+0x334>
 80009b8:	6823      	ldr	r3, [r4, #0]
 80009ba:	019a      	lsls	r2, r3, #6
 80009bc:	d5f6      	bpl.n	80009ac <HAL_RCC_OscConfig+0x4a8>
 80009be:	e67a      	b.n	80006b6 <HAL_RCC_OscConfig+0x1b2>
 80009c0:	4a2d      	ldr	r2, [pc, #180]	; (8000a78 <HAL_RCC_OscConfig+0x574>)
 80009c2:	6a53      	ldr	r3, [r2, #36]	; 0x24
 80009c4:	f023 5380 	bic.w	r3, r3, #268435456	; 0x10000000
 80009c8:	6253      	str	r3, [r2, #36]	; 0x24
 80009ca:	e65a      	b.n	8000682 <HAL_RCC_OscConfig+0x17e>
 80009cc:	4a2a      	ldr	r2, [pc, #168]	; (8000a78 <HAL_RCC_OscConfig+0x574>)
 80009ce:	6b53      	ldr	r3, [r2, #52]	; 0x34
 80009d0:	f443 7380 	orr.w	r3, r3, #256	; 0x100
 80009d4:	6353      	str	r3, [r2, #52]	; 0x34
 80009d6:	e640      	b.n	800065a <HAL_RCC_OscConfig+0x156>
 80009d8:	2801      	cmp	r0, #1
 80009da:	f43f aed6 	beq.w	800078a <HAL_RCC_OscConfig+0x286>
 80009de:	4b26      	ldr	r3, [pc, #152]	; (8000a78 <HAL_RCC_OscConfig+0x574>)
 80009e0:	6aa2      	ldr	r2, [r4, #40]	; 0x28
 80009e2:	689b      	ldr	r3, [r3, #8]
 80009e4:	f403 3180 	and.w	r1, r3, #65536	; 0x10000
 80009e8:	4291      	cmp	r1, r2
 80009ea:	f47f aecd 	bne.w	8000788 <HAL_RCC_OscConfig+0x284>
 80009ee:	6ae2      	ldr	r2, [r4, #44]	; 0x2c
 80009f0:	f403 1170 	and.w	r1, r3, #3932160	; 0x3c0000
 80009f4:	4291      	cmp	r1, r2
 80009f6:	f47f aec7 	bne.w	8000788 <HAL_RCC_OscConfig+0x284>
 80009fa:	6b20      	ldr	r0, [r4, #48]	; 0x30
 80009fc:	f403 0340 	and.w	r3, r3, #12582912	; 0xc00000
 8000a00:	1a18      	subs	r0, r3, r0
 8000a02:	bf18      	it	ne
 8000a04:	2001      	movne	r0, #1
 8000a06:	e6c0      	b.n	800078a <HAL_RCC_OscConfig+0x286>
 8000a08:	f442 6280 	orr.w	r2, r2, #1024	; 0x400
 8000a0c:	635a      	str	r2, [r3, #52]	; 0x34
 8000a0e:	6b5a      	ldr	r2, [r3, #52]	; 0x34
 8000a10:	f442 7280 	orr.w	r2, r2, #256	; 0x100
 8000a14:	635a      	str	r2, [r3, #52]	; 0x34
 8000a16:	e620      	b.n	800065a <HAL_RCC_OscConfig+0x156>
 8000a18:	6a59      	ldr	r1, [r3, #36]	; 0x24
 8000a1a:	481b      	ldr	r0, [pc, #108]	; (8000a88 <HAL_RCC_OscConfig+0x584>)
 8000a1c:	f041 5180 	orr.w	r1, r1, #268435456	; 0x10000000
 8000a20:	6259      	str	r1, [r3, #36]	; 0x24
 8000a22:	6a59      	ldr	r1, [r3, #36]	; 0x24
 8000a24:	f001 5180 	and.w	r1, r1, #268435456	; 0x10000000
 8000a28:	9103      	str	r1, [sp, #12]
 8000a2a:	9903      	ldr	r1, [sp, #12]
 8000a2c:	6801      	ldr	r1, [r0, #0]
 8000a2e:	6a58      	ldr	r0, [r3, #36]	; 0x24
 8000a30:	f401 51c0 	and.w	r1, r1, #6144	; 0x1800
 8000a34:	f020 5080 	bic.w	r0, r0, #268435456	; 0x10000000
 8000a38:	6258      	str	r0, [r3, #36]	; 0x24
 8000a3a:	e767      	b.n	800090c <HAL_RCC_OscConfig+0x408>
 8000a3c:	6a59      	ldr	r1, [r3, #36]	; 0x24
 8000a3e:	4812      	ldr	r0, [pc, #72]	; (8000a88 <HAL_RCC_OscConfig+0x584>)
 8000a40:	f041 5180 	orr.w	r1, r1, #268435456	; 0x10000000
 8000a44:	6259      	str	r1, [r3, #36]	; 0x24
 8000a46:	6a59      	ldr	r1, [r3, #36]	; 0x24
 8000a48:	f001 5180 	and.w	r1, r1, #268435456	; 0x10000000
 8000a4c:	9102      	str	r1, [sp, #8]
 8000a4e:	9902      	ldr	r1, [sp, #8]
 8000a50:	6801      	ldr	r1, [r0, #0]
 8000a52:	6a58      	ldr	r0, [r3, #36]	; 0x24
 8000a54:	f401 51c0 	and.w	r1, r1, #6144	; 0x1800
 8000a58:	f020 5080 	bic.w	r0, r0, #268435456	; 0x10000000
 8000a5c:	6258      	str	r0, [r3, #36]	; 0x24
 8000a5e:	e66b      	b.n	8000738 <HAL_RCC_OscConfig+0x234>
 8000a60:	f5b2 4f40 	cmp.w	r2, #49152	; 0xc000
 8000a64:	f47f af56 	bne.w	8000914 <HAL_RCC_OscConfig+0x410>
 8000a68:	4908      	ldr	r1, [pc, #32]	; (8000a8c <HAL_RCC_OscConfig+0x588>)
 8000a6a:	2001      	movs	r0, #1
 8000a6c:	680b      	ldr	r3, [r1, #0]
 8000a6e:	f043 0304 	orr.w	r3, r3, #4
 8000a72:	600b      	str	r3, [r1, #0]
 8000a74:	e74f      	b.n	8000916 <HAL_RCC_OscConfig+0x412>
 8000a76:	bf00      	nop
 8000a78:	40023800 	.word	0x40023800
 8000a7c:	42470000 	.word	0x42470000
 8000a80:	42470680 	.word	0x42470680
 8000a84:	42470020 	.word	0x42470020
 8000a88:	40007000 	.word	0x40007000
 8000a8c:	40023c00 	.word	0x40023c00
 8000a90:	08002ae8 	.word	0x08002ae8
 8000a94:	20000004 	.word	0x20000004
 8000a98:	20000008 	.word	0x20000008
 8000a9c:	42470060 	.word	0x42470060
 8000aa0:	f5b2 4f40 	cmp.w	r2, #49152	; 0xc000
 8000aa4:	f47f ae4c 	bne.w	8000740 <HAL_RCC_OscConfig+0x23c>
 8000aa8:	4903      	ldr	r1, [pc, #12]	; (8000ab8 <HAL_RCC_OscConfig+0x5b4>)
 8000aaa:	2001      	movs	r0, #1
 8000aac:	680b      	ldr	r3, [r1, #0]
 8000aae:	f043 0304 	orr.w	r3, r3, #4
 8000ab2:	600b      	str	r3, [r1, #0]
 8000ab4:	e645      	b.n	8000742 <HAL_RCC_OscConfig+0x23e>
 8000ab6:	bf00      	nop
 8000ab8:	40023c00 	.word	0x40023c00

08000abc <HAL_RCC_ClockConfig>:
 8000abc:	b1b0      	cbz	r0, 8000aec <HAL_RCC_ClockConfig+0x30>
 8000abe:	4a6c      	ldr	r2, [pc, #432]	; (8000c70 <HAL_RCC_ClockConfig+0x1b4>)
 8000ac0:	6813      	ldr	r3, [r2, #0]
 8000ac2:	f003 0301 	and.w	r3, r3, #1
 8000ac6:	428b      	cmp	r3, r1
 8000ac8:	d212      	bcs.n	8000af0 <HAL_RCC_ClockConfig+0x34>
 8000aca:	2901      	cmp	r1, #1
 8000acc:	d103      	bne.n	8000ad6 <HAL_RCC_ClockConfig+0x1a>
 8000ace:	6813      	ldr	r3, [r2, #0]
 8000ad0:	f043 0304 	orr.w	r3, r3, #4
 8000ad4:	6013      	str	r3, [r2, #0]
 8000ad6:	4a66      	ldr	r2, [pc, #408]	; (8000c70 <HAL_RCC_ClockConfig+0x1b4>)
 8000ad8:	6813      	ldr	r3, [r2, #0]
 8000ada:	f023 0301 	bic.w	r3, r3, #1
 8000ade:	430b      	orrs	r3, r1
 8000ae0:	6013      	str	r3, [r2, #0]
 8000ae2:	6813      	ldr	r3, [r2, #0]
 8000ae4:	f003 0301 	and.w	r3, r3, #1
 8000ae8:	428b      	cmp	r3, r1
 8000aea:	d001      	beq.n	8000af0 <HAL_RCC_ClockConfig+0x34>
 8000aec:	2001      	movs	r0, #1
 8000aee:	4770      	bx	lr
 8000af0:	6803      	ldr	r3, [r0, #0]
 8000af2:	e92d 41f0 	stmdb	sp!, {r4, r5, r6, r7, r8, lr}
 8000af6:	079d      	lsls	r5, r3, #30
 8000af8:	d506      	bpl.n	8000b08 <HAL_RCC_ClockConfig+0x4c>
 8000afa:	4c5e      	ldr	r4, [pc, #376]	; (8000c74 <HAL_RCC_ClockConfig+0x1b8>)
 8000afc:	6885      	ldr	r5, [r0, #8]
 8000afe:	68a2      	ldr	r2, [r4, #8]
 8000b00:	f022 02f0 	bic.w	r2, r2, #240	; 0xf0
 8000b04:	432a      	orrs	r2, r5
 8000b06:	60a2      	str	r2, [r4, #8]
 8000b08:	07dc      	lsls	r4, r3, #31
 8000b0a:	4605      	mov	r5, r0
 8000b0c:	460e      	mov	r6, r1
 8000b0e:	d529      	bpl.n	8000b64 <HAL_RCC_ClockConfig+0xa8>
 8000b10:	6843      	ldr	r3, [r0, #4]
 8000b12:	4a58      	ldr	r2, [pc, #352]	; (8000c74 <HAL_RCC_ClockConfig+0x1b8>)
 8000b14:	2b02      	cmp	r3, #2
 8000b16:	6812      	ldr	r2, [r2, #0]
 8000b18:	d068      	beq.n	8000bec <HAL_RCC_ClockConfig+0x130>
 8000b1a:	2b03      	cmp	r3, #3
 8000b1c:	f000 80a0 	beq.w	8000c60 <HAL_RCC_ClockConfig+0x1a4>
 8000b20:	2b01      	cmp	r3, #1
 8000b22:	f000 80a1 	beq.w	8000c68 <HAL_RCC_ClockConfig+0x1ac>
 8000b26:	0597      	lsls	r7, r2, #22
 8000b28:	d529      	bpl.n	8000b7e <HAL_RCC_ClockConfig+0xc2>
 8000b2a:	4c52      	ldr	r4, [pc, #328]	; (8000c74 <HAL_RCC_ClockConfig+0x1b8>)
 8000b2c:	f241 3888 	movw	r8, #5000	; 0x1388
 8000b30:	68a2      	ldr	r2, [r4, #8]
 8000b32:	f022 0203 	bic.w	r2, r2, #3
 8000b36:	4313      	orrs	r3, r2
 8000b38:	60a3      	str	r3, [r4, #8]
 8000b3a:	f7ff fb65 	bl	8000208 <HAL_GetTick>
 8000b3e:	686b      	ldr	r3, [r5, #4]
 8000b40:	4607      	mov	r7, r0
 8000b42:	2b02      	cmp	r3, #2
 8000b44:	d05c      	beq.n	8000c00 <HAL_RCC_ClockConfig+0x144>
 8000b46:	2b03      	cmp	r3, #3
 8000b48:	d007      	beq.n	8000b5a <HAL_RCC_ClockConfig+0x9e>
 8000b4a:	2b01      	cmp	r3, #1
 8000b4c:	d163      	bne.n	8000c16 <HAL_RCC_ClockConfig+0x15a>
 8000b4e:	e06c      	b.n	8000c2a <HAL_RCC_ClockConfig+0x16e>
 8000b50:	f7ff fb5a 	bl	8000208 <HAL_GetTick>
 8000b54:	1bc0      	subs	r0, r0, r7
 8000b56:	4540      	cmp	r0, r8
 8000b58:	d86d      	bhi.n	8000c36 <HAL_RCC_ClockConfig+0x17a>
 8000b5a:	68a3      	ldr	r3, [r4, #8]
 8000b5c:	f003 030c 	and.w	r3, r3, #12
 8000b60:	2b0c      	cmp	r3, #12
 8000b62:	d1f5      	bne.n	8000b50 <HAL_RCC_ClockConfig+0x94>
 8000b64:	4a42      	ldr	r2, [pc, #264]	; (8000c70 <HAL_RCC_ClockConfig+0x1b4>)
 8000b66:	6813      	ldr	r3, [r2, #0]
 8000b68:	f003 0301 	and.w	r3, r3, #1
 8000b6c:	42b3      	cmp	r3, r6
 8000b6e:	d909      	bls.n	8000b84 <HAL_RCC_ClockConfig+0xc8>
 8000b70:	6813      	ldr	r3, [r2, #0]
 8000b72:	f023 0301 	bic.w	r3, r3, #1
 8000b76:	6013      	str	r3, [r2, #0]
 8000b78:	6813      	ldr	r3, [r2, #0]
 8000b7a:	07d8      	lsls	r0, r3, #31
 8000b7c:	d502      	bpl.n	8000b84 <HAL_RCC_ClockConfig+0xc8>
 8000b7e:	2001      	movs	r0, #1
 8000b80:	e8bd 81f0 	ldmia.w	sp!, {r4, r5, r6, r7, r8, pc}
 8000b84:	682b      	ldr	r3, [r5, #0]
 8000b86:	075c      	lsls	r4, r3, #29
 8000b88:	d506      	bpl.n	8000b98 <HAL_RCC_ClockConfig+0xdc>
 8000b8a:	493a      	ldr	r1, [pc, #232]	; (8000c74 <HAL_RCC_ClockConfig+0x1b8>)
 8000b8c:	68e8      	ldr	r0, [r5, #12]
 8000b8e:	688a      	ldr	r2, [r1, #8]
 8000b90:	f422 62e0 	bic.w	r2, r2, #1792	; 0x700
 8000b94:	4302      	orrs	r2, r0
 8000b96:	608a      	str	r2, [r1, #8]
 8000b98:	0719      	lsls	r1, r3, #28
 8000b9a:	d507      	bpl.n	8000bac <HAL_RCC_ClockConfig+0xf0>
 8000b9c:	4a35      	ldr	r2, [pc, #212]	; (8000c74 <HAL_RCC_ClockConfig+0x1b8>)
 8000b9e:	6929      	ldr	r1, [r5, #16]
 8000ba0:	6893      	ldr	r3, [r2, #8]
 8000ba2:	f423 5360 	bic.w	r3, r3, #14336	; 0x3800
 8000ba6:	ea43 03c1 	orr.w	r3, r3, r1, lsl #3
 8000baa:	6093      	str	r3, [r2, #8]
 8000bac:	4931      	ldr	r1, [pc, #196]	; (8000c74 <HAL_RCC_ClockConfig+0x1b8>)
 8000bae:	688b      	ldr	r3, [r1, #8]
 8000bb0:	f003 020c 	and.w	r2, r3, #12
 8000bb4:	2a08      	cmp	r2, #8
 8000bb6:	d01c      	beq.n	8000bf2 <HAL_RCC_ClockConfig+0x136>
 8000bb8:	2a0c      	cmp	r2, #12
 8000bba:	d040      	beq.n	8000c3e <HAL_RCC_ClockConfig+0x182>
 8000bbc:	2a04      	cmp	r2, #4
 8000bbe:	d03c      	beq.n	8000c3a <HAL_RCC_ClockConfig+0x17e>
 8000bc0:	f44f 4300 	mov.w	r3, #32768	; 0x8000
 8000bc4:	684a      	ldr	r2, [r1, #4]
 8000bc6:	f3c2 3242 	ubfx	r2, r2, #13, #3
 8000bca:	3201      	adds	r2, #1
 8000bcc:	4093      	lsls	r3, r2
 8000bce:	4a29      	ldr	r2, [pc, #164]	; (8000c74 <HAL_RCC_ClockConfig+0x1b8>)
 8000bd0:	4829      	ldr	r0, [pc, #164]	; (8000c78 <HAL_RCC_ClockConfig+0x1bc>)
 8000bd2:	6892      	ldr	r2, [r2, #8]
 8000bd4:	4929      	ldr	r1, [pc, #164]	; (8000c7c <HAL_RCC_ClockConfig+0x1c0>)
 8000bd6:	f3c2 1203 	ubfx	r2, r2, #4, #4
 8000bda:	5c80      	ldrb	r0, [r0, r2]
 8000bdc:	4a28      	ldr	r2, [pc, #160]	; (8000c80 <HAL_RCC_ClockConfig+0x1c4>)
 8000bde:	40c3      	lsrs	r3, r0
 8000be0:	e8bd 41f0 	ldmia.w	sp!, {r4, r5, r6, r7, r8, lr}
 8000be4:	6808      	ldr	r0, [r1, #0]
 8000be6:	6013      	str	r3, [r2, #0]
 8000be8:	f7ff bac8 	b.w	800017c <HAL_InitTick>
 8000bec:	0390      	lsls	r0, r2, #14
 8000bee:	d49c      	bmi.n	8000b2a <HAL_RCC_ClockConfig+0x6e>
 8000bf0:	e7c5      	b.n	8000b7e <HAL_RCC_ClockConfig+0xc2>
 8000bf2:	4b24      	ldr	r3, [pc, #144]	; (8000c84 <HAL_RCC_ClockConfig+0x1c8>)
 8000bf4:	e7eb      	b.n	8000bce <HAL_RCC_ClockConfig+0x112>
 8000bf6:	f7ff fb07 	bl	8000208 <HAL_GetTick>
 8000bfa:	1bc0      	subs	r0, r0, r7
 8000bfc:	4540      	cmp	r0, r8
 8000bfe:	d81a      	bhi.n	8000c36 <HAL_RCC_ClockConfig+0x17a>
 8000c00:	68a3      	ldr	r3, [r4, #8]
 8000c02:	f003 030c 	and.w	r3, r3, #12
 8000c06:	2b08      	cmp	r3, #8
 8000c08:	d1f5      	bne.n	8000bf6 <HAL_RCC_ClockConfig+0x13a>
 8000c0a:	e7ab      	b.n	8000b64 <HAL_RCC_ClockConfig+0xa8>
 8000c0c:	f7ff fafc 	bl	8000208 <HAL_GetTick>
 8000c10:	1bc0      	subs	r0, r0, r7
 8000c12:	4540      	cmp	r0, r8
 8000c14:	d80f      	bhi.n	8000c36 <HAL_RCC_ClockConfig+0x17a>
 8000c16:	68a3      	ldr	r3, [r4, #8]
 8000c18:	f013 0f0c 	tst.w	r3, #12
 8000c1c:	d1f6      	bne.n	8000c0c <HAL_RCC_ClockConfig+0x150>
 8000c1e:	e7a1      	b.n	8000b64 <HAL_RCC_ClockConfig+0xa8>
 8000c20:	f7ff faf2 	bl	8000208 <HAL_GetTick>
 8000c24:	1bc0      	subs	r0, r0, r7
 8000c26:	4540      	cmp	r0, r8
 8000c28:	d805      	bhi.n	8000c36 <HAL_RCC_ClockConfig+0x17a>
 8000c2a:	68a3      	ldr	r3, [r4, #8]
 8000c2c:	f003 030c 	and.w	r3, r3, #12
 8000c30:	2b04      	cmp	r3, #4
 8000c32:	d1f5      	bne.n	8000c20 <HAL_RCC_ClockConfig+0x164>
 8000c34:	e796      	b.n	8000b64 <HAL_RCC_ClockConfig+0xa8>
 8000c36:	2003      	movs	r0, #3
 8000c38:	e7a2      	b.n	8000b80 <HAL_RCC_ClockConfig+0xc4>
 8000c3a:	4b13      	ldr	r3, [pc, #76]	; (8000c88 <HAL_RCC_ClockConfig+0x1cc>)
 8000c3c:	e7c7      	b.n	8000bce <HAL_RCC_ClockConfig+0x112>
 8000c3e:	688a      	ldr	r2, [r1, #8]
 8000c40:	4812      	ldr	r0, [pc, #72]	; (8000c8c <HAL_RCC_ClockConfig+0x1d0>)
 8000c42:	03d2      	lsls	r2, r2, #15
 8000c44:	f3c3 4183 	ubfx	r1, r3, #18, #4
 8000c48:	5c41      	ldrb	r1, [r0, r1]
 8000c4a:	bf4c      	ite	mi
 8000c4c:	4a0d      	ldrmi	r2, [pc, #52]	; (8000c84 <HAL_RCC_ClockConfig+0x1c8>)
 8000c4e:	4a0e      	ldrpl	r2, [pc, #56]	; (8000c88 <HAL_RCC_ClockConfig+0x1cc>)
 8000c50:	f3c3 5381 	ubfx	r3, r3, #22, #2
 8000c54:	fb02 f201 	mul.w	r2, r2, r1
 8000c58:	3301      	adds	r3, #1
 8000c5a:	fbb2 f3f3 	udiv	r3, r2, r3
 8000c5e:	e7b6      	b.n	8000bce <HAL_RCC_ClockConfig+0x112>
 8000c60:	0191      	lsls	r1, r2, #6
 8000c62:	f53f af62 	bmi.w	8000b2a <HAL_RCC_ClockConfig+0x6e>
 8000c66:	e78a      	b.n	8000b7e <HAL_RCC_ClockConfig+0xc2>
 8000c68:	0792      	lsls	r2, r2, #30
 8000c6a:	f53f af5e 	bmi.w	8000b2a <HAL_RCC_ClockConfig+0x6e>
 8000c6e:	e786      	b.n	8000b7e <HAL_RCC_ClockConfig+0xc2>
 8000c70:	40023c00 	.word	0x40023c00
 8000c74:	40023800 	.word	0x40023800
 8000c78:	08002ae8 	.word	0x08002ae8
 8000c7c:	20000004 	.word	0x20000004
 8000c80:	20000008 	.word	0x20000008
 8000c84:	016e3600 	.word	0x016e3600
 8000c88:	00f42400 	.word	0x00f42400
 8000c8c:	08002b00 	.word	0x08002b00

08000c90 <HAL_RCC_GetPCLK1Freq>:
 8000c90:	4b04      	ldr	r3, [pc, #16]	; (8000ca4 <HAL_RCC_GetPCLK1Freq+0x14>)
 8000c92:	4905      	ldr	r1, [pc, #20]	; (8000ca8 <HAL_RCC_GetPCLK1Freq+0x18>)
 8000c94:	689b      	ldr	r3, [r3, #8]
 8000c96:	4a05      	ldr	r2, [pc, #20]	; (8000cac <HAL_RCC_GetPCLK1Freq+0x1c>)
 8000c98:	f3c3 2302 	ubfx	r3, r3, #8, #3
 8000c9c:	5ccb      	ldrb	r3, [r1, r3]
 8000c9e:	6810      	ldr	r0, [r2, #0]
 8000ca0:	40d8      	lsrs	r0, r3
 8000ca2:	4770      	bx	lr
 8000ca4:	40023800 	.word	0x40023800
 8000ca8:	08002af8 	.word	0x08002af8
 8000cac:	20000008 	.word	0x20000008

08000cb0 <HAL_RCC_GetPCLK2Freq>:
 8000cb0:	4b04      	ldr	r3, [pc, #16]	; (8000cc4 <HAL_RCC_GetPCLK2Freq+0x14>)
 8000cb2:	4905      	ldr	r1, [pc, #20]	; (8000cc8 <HAL_RCC_GetPCLK2Freq+0x18>)
 8000cb4:	689b      	ldr	r3, [r3, #8]
 8000cb6:	4a05      	ldr	r2, [pc, #20]	; (8000ccc <HAL_RCC_GetPCLK2Freq+0x1c>)
 8000cb8:	f3c3 23c2 	ubfx	r3, r3, #11, #3
 8000cbc:	5ccb      	ldrb	r3, [r1, r3]
 8000cbe:	6810      	ldr	r0, [r2, #0]
 8000cc0:	40d8      	lsrs	r0, r3
 8000cc2:	4770      	bx	lr
 8000cc4:	40023800 	.word	0x40023800
 8000cc8:	08002af8 	.word	0x08002af8
 8000ccc:	20000008 	.word	0x20000008

08000cd0 <HAL_TIM_Base_Init>:
 8000cd0:	2800      	cmp	r0, #0
 8000cd2:	d043      	beq.n	8000d5c <HAL_TIM_Base_Init+0x8c>
 8000cd4:	b538      	push	{r3, r4, r5, lr}
 8000cd6:	f890 3039 	ldrb.w	r3, [r0, #57]	; 0x39
 8000cda:	4604      	mov	r4, r0
 8000cdc:	f003 02ff 	and.w	r2, r3, #255	; 0xff
 8000ce0:	2b00      	cmp	r3, #0
 8000ce2:	d036      	beq.n	8000d52 <HAL_TIM_Base_Init+0x82>
 8000ce4:	2302      	movs	r3, #2
 8000ce6:	6825      	ldr	r5, [r4, #0]
 8000ce8:	f884 3039 	strb.w	r3, [r4, #57]	; 0x39
 8000cec:	f1b5 4f80 	cmp.w	r5, #1073741824	; 0x40000000
 8000cf0:	682b      	ldr	r3, [r5, #0]
 8000cf2:	d017      	beq.n	8000d24 <HAL_TIM_Base_Init+0x54>
 8000cf4:	4a1a      	ldr	r2, [pc, #104]	; (8000d60 <HAL_TIM_Base_Init+0x90>)
 8000cf6:	4295      	cmp	r5, r2
 8000cf8:	d014      	beq.n	8000d24 <HAL_TIM_Base_Init+0x54>
 8000cfa:	f502 6280 	add.w	r2, r2, #1024	; 0x400
 8000cfe:	4295      	cmp	r5, r2
 8000d00:	d010      	beq.n	8000d24 <HAL_TIM_Base_Init+0x54>
 8000d02:	f502 6280 	add.w	r2, r2, #1024	; 0x400
 8000d06:	4295      	cmp	r5, r2
 8000d08:	d00c      	beq.n	8000d24 <HAL_TIM_Base_Init+0x54>
 8000d0a:	f502 427c 	add.w	r2, r2, #64512	; 0xfc00
 8000d0e:	4295      	cmp	r5, r2
 8000d10:	d008      	beq.n	8000d24 <HAL_TIM_Base_Init+0x54>
 8000d12:	f502 6280 	add.w	r2, r2, #1024	; 0x400
 8000d16:	4295      	cmp	r5, r2
 8000d18:	d008      	beq.n	8000d2c <HAL_TIM_Base_Init+0x5c>
 8000d1a:	f502 6280 	add.w	r2, r2, #1024	; 0x400
 8000d1e:	4295      	cmp	r5, r2
 8000d20:	d108      	bne.n	8000d34 <HAL_TIM_Base_Init+0x64>
 8000d22:	e003      	b.n	8000d2c <HAL_TIM_Base_Init+0x5c>
 8000d24:	68a2      	ldr	r2, [r4, #8]
 8000d26:	f023 0370 	bic.w	r3, r3, #112	; 0x70
 8000d2a:	4313      	orrs	r3, r2
 8000d2c:	6922      	ldr	r2, [r4, #16]
 8000d2e:	f423 7340 	bic.w	r3, r3, #768	; 0x300
 8000d32:	4313      	orrs	r3, r2
 8000d34:	2201      	movs	r2, #1
 8000d36:	6961      	ldr	r1, [r4, #20]
 8000d38:	f023 0380 	bic.w	r3, r3, #128	; 0x80
 8000d3c:	68e0      	ldr	r0, [r4, #12]
 8000d3e:	430b      	orrs	r3, r1
 8000d40:	6861      	ldr	r1, [r4, #4]
 8000d42:	602b      	str	r3, [r5, #0]
 8000d44:	62e8      	str	r0, [r5, #44]	; 0x2c
 8000d46:	62a9      	str	r1, [r5, #40]	; 0x28
 8000d48:	2000      	movs	r0, #0
 8000d4a:	616a      	str	r2, [r5, #20]
 8000d4c:	f884 2039 	strb.w	r2, [r4, #57]	; 0x39
 8000d50:	bd38      	pop	{r3, r4, r5, pc}
 8000d52:	f880 2038 	strb.w	r2, [r0, #56]	; 0x38
 8000d56:	f000 fe25 	bl	80019a4 <HAL_TIM_Base_MspInit>
 8000d5a:	e7c3      	b.n	8000ce4 <HAL_TIM_Base_Init+0x14>
 8000d5c:	2001      	movs	r0, #1
 8000d5e:	4770      	bx	lr
 8000d60:	40000400 	.word	0x40000400

08000d64 <HAL_TIM_Base_Start_IT>:
 8000d64:	6803      	ldr	r3, [r0, #0]
 8000d66:	68da      	ldr	r2, [r3, #12]
 8000d68:	f042 0201 	orr.w	r2, r2, #1
 8000d6c:	60da      	str	r2, [r3, #12]
 8000d6e:	689a      	ldr	r2, [r3, #8]
 8000d70:	f002 0207 	and.w	r2, r2, #7
 8000d74:	2a06      	cmp	r2, #6
 8000d76:	d003      	beq.n	8000d80 <HAL_TIM_Base_Start_IT+0x1c>
 8000d78:	681a      	ldr	r2, [r3, #0]
 8000d7a:	f042 0201 	orr.w	r2, r2, #1
 8000d7e:	601a      	str	r2, [r3, #0]
 8000d80:	2000      	movs	r0, #0
 8000d82:	4770      	bx	lr

08000d84 <HAL_TIM_Base_Stop_IT>:
 8000d84:	f241 1111 	movw	r1, #4369	; 0x1111
 8000d88:	6803      	ldr	r3, [r0, #0]
 8000d8a:	68da      	ldr	r2, [r3, #12]
 8000d8c:	f022 0201 	bic.w	r2, r2, #1
 8000d90:	60da      	str	r2, [r3, #12]
 8000d92:	6a1a      	ldr	r2, [r3, #32]
 8000d94:	420a      	tst	r2, r1
 8000d96:	d103      	bne.n	8000da0 <HAL_TIM_Base_Stop_IT+0x1c>
 8000d98:	681a      	ldr	r2, [r3, #0]
 8000d9a:	f022 0201 	bic.w	r2, r2, #1
 8000d9e:	601a      	str	r2, [r3, #0]
 8000da0:	2000      	movs	r0, #0
 8000da2:	4770      	bx	lr

08000da4 <HAL_TIM_IC_MspInit>:
 8000da4:	4770      	bx	lr
 8000da6:	bf00      	nop

08000da8 <HAL_TIM_IC_Init>:
 8000da8:	2800      	cmp	r0, #0
 8000daa:	d043      	beq.n	8000e34 <HAL_TIM_IC_Init+0x8c>
 8000dac:	b538      	push	{r3, r4, r5, lr}
 8000dae:	f890 3039 	ldrb.w	r3, [r0, #57]	; 0x39
 8000db2:	4604      	mov	r4, r0
 8000db4:	f003 02ff 	and.w	r2, r3, #255	; 0xff
 8000db8:	2b00      	cmp	r3, #0
 8000dba:	d036      	beq.n	8000e2a <HAL_TIM_IC_Init+0x82>
 8000dbc:	2302      	movs	r3, #2
 8000dbe:	6825      	ldr	r5, [r4, #0]
 8000dc0:	f884 3039 	strb.w	r3, [r4, #57]	; 0x39
 8000dc4:	f1b5 4f80 	cmp.w	r5, #1073741824	; 0x40000000
 8000dc8:	682b      	ldr	r3, [r5, #0]
 8000dca:	d017      	beq.n	8000dfc <HAL_TIM_IC_Init+0x54>
 8000dcc:	4a1a      	ldr	r2, [pc, #104]	; (8000e38 <HAL_TIM_IC_Init+0x90>)
 8000dce:	4295      	cmp	r5, r2
 8000dd0:	d014      	beq.n	8000dfc <HAL_TIM_IC_Init+0x54>
 8000dd2:	f502 6280 	add.w	r2, r2, #1024	; 0x400
 8000dd6:	4295      	cmp	r5, r2
 8000dd8:	d010      	beq.n	8000dfc <HAL_TIM_IC_Init+0x54>
 8000dda:	f502 6280 	add.w	r2, r2, #1024	; 0x400
 8000dde:	4295      	cmp	r5, r2
 8000de0:	d00c      	beq.n	8000dfc <HAL_TIM_IC_Init+0x54>
 8000de2:	f502 427c 	add.w	r2, r2, #64512	; 0xfc00
 8000de6:	4295      	cmp	r5, r2
 8000de8:	d008      	beq.n	8000dfc <HAL_TIM_IC_Init+0x54>
 8000dea:	f502 6280 	add.w	r2, r2, #1024	; 0x400
 8000dee:	4295      	cmp	r5, r2
 8000df0:	d008      	beq.n	8000e04 <HAL_TIM_IC_Init+0x5c>
 8000df2:	f502 6280 	add.w	r2, r2, #1024	; 0x400
 8000df6:	4295      	cmp	r5, r2
 8000df8:	d108      	bne.n	8000e0c <HAL_TIM_IC_Init+0x64>
 8000dfa:	e003      	b.n	8000e04 <HAL_TIM_IC_Init+0x5c>
 8000dfc:	68a2      	ldr	r2, [r4, #8]
 8000dfe:	f023 0370 	bic.w	r3, r3, #112	; 0x70
 8000e02:	4313      	orrs	r3, r2
 8000e04:	6922      	ldr	r2, [r4, #16]
 8000e06:	f423 7340 	bic.w	r3, r3, #768	; 0x300
 8000e0a:	4313      	orrs	r3, r2
 8000e0c:	2201      	movs	r2, #1
 8000e0e:	6961      	ldr	r1, [r4, #20]
 8000e10:	f023 0380 	bic.w	r3, r3, #128	; 0x80
 8000e14:	68e0      	ldr	r0, [r4, #12]
 8000e16:	430b      	orrs	r3, r1
 8000e18:	6861      	ldr	r1, [r4, #4]
 8000e1a:	602b      	str	r3, [r5, #0]
 8000e1c:	62e8      	str	r0, [r5, #44]	; 0x2c
 8000e1e:	62a9      	str	r1, [r5, #40]	; 0x28
 8000e20:	2000      	movs	r0, #0
 8000e22:	616a      	str	r2, [r5, #20]
 8000e24:	f884 2039 	strb.w	r2, [r4, #57]	; 0x39
 8000e28:	bd38      	pop	{r3, r4, r5, pc}
 8000e2a:	f880 2038 	strb.w	r2, [r0, #56]	; 0x38
 8000e2e:	f7ff ffb9 	bl	8000da4 <HAL_TIM_IC_MspInit>
 8000e32:	e7c3      	b.n	8000dbc <HAL_TIM_IC_Init+0x14>
 8000e34:	2001      	movs	r0, #1
 8000e36:	4770      	bx	lr
 8000e38:	40000400 	.word	0x40000400

08000e3c <HAL_TIM_IC_Start_IT>:
 8000e3c:	6803      	ldr	r3, [r0, #0]
 8000e3e:	290c      	cmp	r1, #12
 8000e40:	d80c      	bhi.n	8000e5c <HAL_TIM_IC_Start_IT+0x20>
 8000e42:	e8df f001 	tbb	[pc, r1]
 8000e46:	0b2c      	.short	0x0b2c
 8000e48:	0b270b0b 	.word	0x0b270b0b
 8000e4c:	0b220b0b 	.word	0x0b220b0b
 8000e50:	0b0b      	.short	0x0b0b
 8000e52:	07          	.byte	0x07
 8000e53:	00          	.byte	0x00
 8000e54:	68da      	ldr	r2, [r3, #12]
 8000e56:	f042 0210 	orr.w	r2, r2, #16
 8000e5a:	60da      	str	r2, [r3, #12]
 8000e5c:	2201      	movs	r2, #1
 8000e5e:	6a18      	ldr	r0, [r3, #32]
 8000e60:	f001 011f 	and.w	r1, r1, #31
 8000e64:	fa02 f101 	lsl.w	r1, r2, r1
 8000e68:	ea20 0001 	bic.w	r0, r0, r1
 8000e6c:	6218      	str	r0, [r3, #32]
 8000e6e:	6a1a      	ldr	r2, [r3, #32]
 8000e70:	4311      	orrs	r1, r2
 8000e72:	6219      	str	r1, [r3, #32]
 8000e74:	689a      	ldr	r2, [r3, #8]
 8000e76:	f002 0207 	and.w	r2, r2, #7
 8000e7a:	2a06      	cmp	r2, #6
 8000e7c:	d003      	beq.n	8000e86 <HAL_TIM_IC_Start_IT+0x4a>
 8000e7e:	681a      	ldr	r2, [r3, #0]
 8000e80:	f042 0201 	orr.w	r2, r2, #1
 8000e84:	601a      	str	r2, [r3, #0]
 8000e86:	2000      	movs	r0, #0
 8000e88:	4770      	bx	lr
 8000e8a:	68da      	ldr	r2, [r3, #12]
 8000e8c:	f042 0208 	orr.w	r2, r2, #8
 8000e90:	60da      	str	r2, [r3, #12]
 8000e92:	e7e3      	b.n	8000e5c <HAL_TIM_IC_Start_IT+0x20>
 8000e94:	68da      	ldr	r2, [r3, #12]
 8000e96:	f042 0204 	orr.w	r2, r2, #4
 8000e9a:	60da      	str	r2, [r3, #12]
 8000e9c:	e7de      	b.n	8000e5c <HAL_TIM_IC_Start_IT+0x20>
 8000e9e:	68da      	ldr	r2, [r3, #12]
 8000ea0:	f042 0202 	orr.w	r2, r2, #2
 8000ea4:	60da      	str	r2, [r3, #12]
 8000ea6:	e7d9      	b.n	8000e5c <HAL_TIM_IC_Start_IT+0x20>

08000ea8 <HAL_TIM_IC_Stop_IT>:
 8000ea8:	b410      	push	{r4}
 8000eaa:	6803      	ldr	r3, [r0, #0]
 8000eac:	290c      	cmp	r1, #12
 8000eae:	d80c      	bhi.n	8000eca <HAL_TIM_IC_Stop_IT+0x22>
 8000eb0:	e8df f001 	tbb	[pc, r1]
 8000eb4:	0b0b0b2c 	.word	0x0b0b0b2c
 8000eb8:	0b0b0b27 	.word	0x0b0b0b27
 8000ebc:	0b0b0b22 	.word	0x0b0b0b22
 8000ec0:	07          	.byte	0x07
 8000ec1:	00          	.byte	0x00
 8000ec2:	68da      	ldr	r2, [r3, #12]
 8000ec4:	f022 0210 	bic.w	r2, r2, #16
 8000ec8:	60da      	str	r2, [r3, #12]
 8000eca:	2001      	movs	r0, #1
 8000ecc:	f241 1411 	movw	r4, #4369	; 0x1111
 8000ed0:	6a1a      	ldr	r2, [r3, #32]
 8000ed2:	f001 011f 	and.w	r1, r1, #31
 8000ed6:	fa00 f101 	lsl.w	r1, r0, r1
 8000eda:	ea22 0101 	bic.w	r1, r2, r1
 8000ede:	6219      	str	r1, [r3, #32]
 8000ee0:	6a1a      	ldr	r2, [r3, #32]
 8000ee2:	621a      	str	r2, [r3, #32]
 8000ee4:	6a1a      	ldr	r2, [r3, #32]
 8000ee6:	4222      	tst	r2, r4
 8000ee8:	d103      	bne.n	8000ef2 <HAL_TIM_IC_Stop_IT+0x4a>
 8000eea:	681a      	ldr	r2, [r3, #0]
 8000eec:	f022 0201 	bic.w	r2, r2, #1
 8000ef0:	601a      	str	r2, [r3, #0]
 8000ef2:	2000      	movs	r0, #0
 8000ef4:	bc10      	pop	{r4}
 8000ef6:	4770      	bx	lr
 8000ef8:	68da      	ldr	r2, [r3, #12]
 8000efa:	f022 0208 	bic.w	r2, r2, #8
 8000efe:	60da      	str	r2, [r3, #12]
 8000f00:	e7e3      	b.n	8000eca <HAL_TIM_IC_Stop_IT+0x22>
 8000f02:	68da      	ldr	r2, [r3, #12]
 8000f04:	f022 0204 	bic.w	r2, r2, #4
 8000f08:	60da      	str	r2, [r3, #12]
 8000f0a:	e7de      	b.n	8000eca <HAL_TIM_IC_Stop_IT+0x22>
 8000f0c:	68da      	ldr	r2, [r3, #12]
 8000f0e:	f022 0202 	bic.w	r2, r2, #2
 8000f12:	60da      	str	r2, [r3, #12]
 8000f14:	e7d9      	b.n	8000eca <HAL_TIM_IC_Stop_IT+0x22>
 8000f16:	bf00      	nop

08000f18 <HAL_TIM_IC_ConfigChannel>:
 8000f18:	f890 3038 	ldrb.w	r3, [r0, #56]	; 0x38
 8000f1c:	2b01      	cmp	r3, #1
 8000f1e:	f000 808e 	beq.w	800103e <HAL_TIM_IC_ConfigChannel+0x126>
 8000f22:	b4f0      	push	{r4, r5, r6, r7}
 8000f24:	e9d1 6700 	ldrd	r6, r7, [r1]
 8000f28:	2401      	movs	r4, #1
 8000f2a:	2302      	movs	r3, #2
 8000f2c:	f880 4038 	strb.w	r4, [r0, #56]	; 0x38
 8000f30:	f880 3039 	strb.w	r3, [r0, #57]	; 0x39
 8000f34:	e9d1 5402 	ldrd	r5, r4, [r1, #8]
 8000f38:	6803      	ldr	r3, [r0, #0]
 8000f3a:	b362      	cbz	r2, 8000f96 <HAL_TIM_IC_ConfigChannel+0x7e>
 8000f3c:	2a04      	cmp	r2, #4
 8000f3e:	d05d      	beq.n	8000ffc <HAL_TIM_IC_ConfigChannel+0xe4>
 8000f40:	2a08      	cmp	r2, #8
 8000f42:	6a1a      	ldr	r2, [r3, #32]
 8000f44:	d07d      	beq.n	8001042 <HAL_TIM_IC_ConfigChannel+0x12a>
 8000f46:	f422 5280 	bic.w	r2, r2, #4096	; 0x1000
 8000f4a:	621a      	str	r2, [r3, #32]
 8000f4c:	69d9      	ldr	r1, [r3, #28]
 8000f4e:	f8d3 c020 	ldr.w	ip, [r3, #32]
 8000f52:	f421 7140 	bic.w	r1, r1, #768	; 0x300
 8000f56:	0332      	lsls	r2, r6, #12
 8000f58:	0324      	lsls	r4, r4, #12
 8000f5a:	ea41 2107 	orr.w	r1, r1, r7, lsl #8
 8000f5e:	b2a4      	uxth	r4, r4
 8000f60:	f402 4220 	and.w	r2, r2, #40960	; 0xa000
 8000f64:	f421 4170 	bic.w	r1, r1, #61440	; 0xf000
 8000f68:	f42c 4620 	bic.w	r6, ip, #40960	; 0xa000
 8000f6c:	4332      	orrs	r2, r6
 8000f6e:	430c      	orrs	r4, r1
 8000f70:	61dc      	str	r4, [r3, #28]
 8000f72:	621a      	str	r2, [r3, #32]
 8000f74:	69da      	ldr	r2, [r3, #28]
 8000f76:	f422 6240 	bic.w	r2, r2, #3072	; 0xc00
 8000f7a:	61da      	str	r2, [r3, #28]
 8000f7c:	69da      	ldr	r2, [r3, #28]
 8000f7e:	ea42 2505 	orr.w	r5, r2, r5, lsl #8
 8000f82:	61dd      	str	r5, [r3, #28]
 8000f84:	2300      	movs	r3, #0
 8000f86:	bcf0      	pop	{r4, r5, r6, r7}
 8000f88:	2201      	movs	r2, #1
 8000f8a:	f880 3038 	strb.w	r3, [r0, #56]	; 0x38
 8000f8e:	f880 2039 	strb.w	r2, [r0, #57]	; 0x39
 8000f92:	4618      	mov	r0, r3
 8000f94:	4770      	bx	lr
 8000f96:	6a1a      	ldr	r2, [r3, #32]
 8000f98:	f1b3 4f80 	cmp.w	r3, #1073741824	; 0x40000000
 8000f9c:	f022 0201 	bic.w	r2, r2, #1
 8000fa0:	621a      	str	r2, [r3, #32]
 8000fa2:	6999      	ldr	r1, [r3, #24]
 8000fa4:	6a1a      	ldr	r2, [r3, #32]
 8000fa6:	d012      	beq.n	8000fce <HAL_TIM_IC_ConfigChannel+0xb6>
 8000fa8:	f8df c0d4 	ldr.w	ip, [pc, #212]	; 8001080 <HAL_TIM_IC_ConfigChannel+0x168>
 8000fac:	4563      	cmp	r3, ip
 8000fae:	d00e      	beq.n	8000fce <HAL_TIM_IC_ConfigChannel+0xb6>
 8000fb0:	f50c 6c80 	add.w	ip, ip, #1024	; 0x400
 8000fb4:	4563      	cmp	r3, ip
 8000fb6:	d00a      	beq.n	8000fce <HAL_TIM_IC_ConfigChannel+0xb6>
 8000fb8:	f50c 6c80 	add.w	ip, ip, #1024	; 0x400
 8000fbc:	4563      	cmp	r3, ip
 8000fbe:	d006      	beq.n	8000fce <HAL_TIM_IC_ConfigChannel+0xb6>
 8000fc0:	f50c 4c7c 	add.w	ip, ip, #64512	; 0xfc00
 8000fc4:	4563      	cmp	r3, ip
 8000fc6:	d002      	beq.n	8000fce <HAL_TIM_IC_ConfigChannel+0xb6>
 8000fc8:	f041 0101 	orr.w	r1, r1, #1
 8000fcc:	e002      	b.n	8000fd4 <HAL_TIM_IC_ConfigChannel+0xbc>
 8000fce:	f021 0103 	bic.w	r1, r1, #3
 8000fd2:	4339      	orrs	r1, r7
 8000fd4:	0124      	lsls	r4, r4, #4
 8000fd6:	f022 070a 	bic.w	r7, r2, #10
 8000fda:	b2e4      	uxtb	r4, r4
 8000fdc:	f021 01f0 	bic.w	r1, r1, #240	; 0xf0
 8000fe0:	f006 020a 	and.w	r2, r6, #10
 8000fe4:	433a      	orrs	r2, r7
 8000fe6:	4321      	orrs	r1, r4
 8000fe8:	6199      	str	r1, [r3, #24]
 8000fea:	621a      	str	r2, [r3, #32]
 8000fec:	699a      	ldr	r2, [r3, #24]
 8000fee:	f022 020c 	bic.w	r2, r2, #12
 8000ff2:	619a      	str	r2, [r3, #24]
 8000ff4:	699a      	ldr	r2, [r3, #24]
 8000ff6:	4315      	orrs	r5, r2
 8000ff8:	619d      	str	r5, [r3, #24]
 8000ffa:	e7c3      	b.n	8000f84 <HAL_TIM_IC_ConfigChannel+0x6c>
 8000ffc:	6a1a      	ldr	r2, [r3, #32]
 8000ffe:	0324      	lsls	r4, r4, #12
 8001000:	f022 0210 	bic.w	r2, r2, #16
 8001004:	621a      	str	r2, [r3, #32]
 8001006:	6999      	ldr	r1, [r3, #24]
 8001008:	f8d3 c020 	ldr.w	ip, [r3, #32]
 800100c:	f421 7140 	bic.w	r1, r1, #768	; 0x300
 8001010:	0132      	lsls	r2, r6, #4
 8001012:	ea41 2107 	orr.w	r1, r1, r7, lsl #8
 8001016:	b2a4      	uxth	r4, r4
 8001018:	f002 02a0 	and.w	r2, r2, #160	; 0xa0
 800101c:	f421 4170 	bic.w	r1, r1, #61440	; 0xf000
 8001020:	f02c 06a0 	bic.w	r6, ip, #160	; 0xa0
 8001024:	4332      	orrs	r2, r6
 8001026:	4321      	orrs	r1, r4
 8001028:	6199      	str	r1, [r3, #24]
 800102a:	621a      	str	r2, [r3, #32]
 800102c:	699a      	ldr	r2, [r3, #24]
 800102e:	f422 6240 	bic.w	r2, r2, #3072	; 0xc00
 8001032:	619a      	str	r2, [r3, #24]
 8001034:	699a      	ldr	r2, [r3, #24]
 8001036:	ea42 2505 	orr.w	r5, r2, r5, lsl #8
 800103a:	619d      	str	r5, [r3, #24]
 800103c:	e7a2      	b.n	8000f84 <HAL_TIM_IC_ConfigChannel+0x6c>
 800103e:	2002      	movs	r0, #2
 8001040:	4770      	bx	lr
 8001042:	f422 7280 	bic.w	r2, r2, #256	; 0x100
 8001046:	621a      	str	r2, [r3, #32]
 8001048:	69d9      	ldr	r1, [r3, #28]
 800104a:	f8d3 c020 	ldr.w	ip, [r3, #32]
 800104e:	f021 0103 	bic.w	r1, r1, #3
 8001052:	0232      	lsls	r2, r6, #8
 8001054:	0124      	lsls	r4, r4, #4
 8001056:	4339      	orrs	r1, r7
 8001058:	b2e4      	uxtb	r4, r4
 800105a:	f402 6220 	and.w	r2, r2, #2560	; 0xa00
 800105e:	f021 01f0 	bic.w	r1, r1, #240	; 0xf0
 8001062:	f42c 6620 	bic.w	r6, ip, #2560	; 0xa00
 8001066:	4332      	orrs	r2, r6
 8001068:	4321      	orrs	r1, r4
 800106a:	61d9      	str	r1, [r3, #28]
 800106c:	621a      	str	r2, [r3, #32]
 800106e:	69da      	ldr	r2, [r3, #28]
 8001070:	f022 020c 	bic.w	r2, r2, #12
 8001074:	61da      	str	r2, [r3, #28]
 8001076:	69da      	ldr	r2, [r3, #28]
 8001078:	4315      	orrs	r5, r2
 800107a:	61dd      	str	r5, [r3, #28]
 800107c:	e782      	b.n	8000f84 <HAL_TIM_IC_ConfigChannel+0x6c>
 800107e:	bf00      	nop
 8001080:	40000400 	.word	0x40000400

08001084 <HAL_TIM_ConfigClockSource>:
 8001084:	f890 3038 	ldrb.w	r3, [r0, #56]	; 0x38
 8001088:	2b01      	cmp	r3, #1
 800108a:	d05a      	beq.n	8001142 <HAL_TIM_ConfigClockSource+0xbe>
 800108c:	2202      	movs	r2, #2
 800108e:	b4f0      	push	{r4, r5, r6, r7}
 8001090:	2501      	movs	r5, #1
 8001092:	6803      	ldr	r3, [r0, #0]
 8001094:	f880 2039 	strb.w	r2, [r0, #57]	; 0x39
 8001098:	689a      	ldr	r2, [r3, #8]
 800109a:	680c      	ldr	r4, [r1, #0]
 800109c:	f422 427f 	bic.w	r2, r2, #65280	; 0xff00
 80010a0:	f022 0277 	bic.w	r2, r2, #119	; 0x77
 80010a4:	2c40      	cmp	r4, #64	; 0x40
 80010a6:	f880 5038 	strb.w	r5, [r0, #56]	; 0x38
 80010aa:	609a      	str	r2, [r3, #8]
 80010ac:	d074      	beq.n	8001198 <HAL_TIM_ConfigClockSource+0x114>
 80010ae:	d94a      	bls.n	8001146 <HAL_TIM_ConfigClockSource+0xc2>
 80010b0:	2c60      	cmp	r4, #96	; 0x60
 80010b2:	d02d      	beq.n	8001110 <HAL_TIM_ConfigClockSource+0x8c>
 80010b4:	d956      	bls.n	8001164 <HAL_TIM_ConfigClockSource+0xe0>
 80010b6:	2c70      	cmp	r4, #112	; 0x70
 80010b8:	d01a      	beq.n	80010f0 <HAL_TIM_ConfigClockSource+0x6c>
 80010ba:	f5b4 5f00 	cmp.w	r4, #8192	; 0x2000
 80010be:	d10e      	bne.n	80010de <HAL_TIM_ConfigClockSource+0x5a>
 80010c0:	e9d1 5201 	ldrd	r5, r2, [r1, #4]
 80010c4:	68cc      	ldr	r4, [r1, #12]
 80010c6:	6899      	ldr	r1, [r3, #8]
 80010c8:	432a      	orrs	r2, r5
 80010ca:	ea42 2204 	orr.w	r2, r2, r4, lsl #8
 80010ce:	f421 417f 	bic.w	r1, r1, #65280	; 0xff00
 80010d2:	430a      	orrs	r2, r1
 80010d4:	609a      	str	r2, [r3, #8]
 80010d6:	689a      	ldr	r2, [r3, #8]
 80010d8:	f442 4280 	orr.w	r2, r2, #16384	; 0x4000
 80010dc:	609a      	str	r2, [r3, #8]
 80010de:	2300      	movs	r3, #0
 80010e0:	bcf0      	pop	{r4, r5, r6, r7}
 80010e2:	2201      	movs	r2, #1
 80010e4:	f880 3038 	strb.w	r3, [r0, #56]	; 0x38
 80010e8:	f880 2039 	strb.w	r2, [r0, #57]	; 0x39
 80010ec:	4618      	mov	r0, r3
 80010ee:	4770      	bx	lr
 80010f0:	e9d1 5201 	ldrd	r5, r2, [r1, #4]
 80010f4:	68cc      	ldr	r4, [r1, #12]
 80010f6:	6899      	ldr	r1, [r3, #8]
 80010f8:	432a      	orrs	r2, r5
 80010fa:	ea42 2204 	orr.w	r2, r2, r4, lsl #8
 80010fe:	f421 417f 	bic.w	r1, r1, #65280	; 0xff00
 8001102:	430a      	orrs	r2, r1
 8001104:	609a      	str	r2, [r3, #8]
 8001106:	689a      	ldr	r2, [r3, #8]
 8001108:	f042 0277 	orr.w	r2, r2, #119	; 0x77
 800110c:	609a      	str	r2, [r3, #8]
 800110e:	e7e6      	b.n	80010de <HAL_TIM_ConfigClockSource+0x5a>
 8001110:	6a1c      	ldr	r4, [r3, #32]
 8001112:	684d      	ldr	r5, [r1, #4]
 8001114:	f024 0410 	bic.w	r4, r4, #16
 8001118:	68ce      	ldr	r6, [r1, #12]
 800111a:	621c      	str	r4, [r3, #32]
 800111c:	6999      	ldr	r1, [r3, #24]
 800111e:	6a1a      	ldr	r2, [r3, #32]
 8001120:	f421 4170 	bic.w	r1, r1, #61440	; 0xf000
 8001124:	f022 02a0 	bic.w	r2, r2, #160	; 0xa0
 8001128:	ea42 1205 	orr.w	r2, r2, r5, lsl #4
 800112c:	ea41 3106 	orr.w	r1, r1, r6, lsl #12
 8001130:	6199      	str	r1, [r3, #24]
 8001132:	621a      	str	r2, [r3, #32]
 8001134:	689a      	ldr	r2, [r3, #8]
 8001136:	f022 0270 	bic.w	r2, r2, #112	; 0x70
 800113a:	f042 0267 	orr.w	r2, r2, #103	; 0x67
 800113e:	609a      	str	r2, [r3, #8]
 8001140:	e7cd      	b.n	80010de <HAL_TIM_ConfigClockSource+0x5a>
 8001142:	2002      	movs	r0, #2
 8001144:	4770      	bx	lr
 8001146:	2c10      	cmp	r4, #16
 8001148:	d004      	beq.n	8001154 <HAL_TIM_ConfigClockSource+0xd0>
 800114a:	d93d      	bls.n	80011c8 <HAL_TIM_ConfigClockSource+0x144>
 800114c:	2c20      	cmp	r4, #32
 800114e:	d001      	beq.n	8001154 <HAL_TIM_ConfigClockSource+0xd0>
 8001150:	2c30      	cmp	r4, #48	; 0x30
 8001152:	d1c4      	bne.n	80010de <HAL_TIM_ConfigClockSource+0x5a>
 8001154:	689a      	ldr	r2, [r3, #8]
 8001156:	f044 0407 	orr.w	r4, r4, #7
 800115a:	f022 0270 	bic.w	r2, r2, #112	; 0x70
 800115e:	4314      	orrs	r4, r2
 8001160:	609c      	str	r4, [r3, #8]
 8001162:	e7bc      	b.n	80010de <HAL_TIM_ConfigClockSource+0x5a>
 8001164:	2c50      	cmp	r4, #80	; 0x50
 8001166:	d1ba      	bne.n	80010de <HAL_TIM_ConfigClockSource+0x5a>
 8001168:	6a1d      	ldr	r5, [r3, #32]
 800116a:	6a1e      	ldr	r6, [r3, #32]
 800116c:	684c      	ldr	r4, [r1, #4]
 800116e:	f026 0601 	bic.w	r6, r6, #1
 8001172:	68cf      	ldr	r7, [r1, #12]
 8001174:	621e      	str	r6, [r3, #32]
 8001176:	699a      	ldr	r2, [r3, #24]
 8001178:	f025 010a 	bic.w	r1, r5, #10
 800117c:	f022 02f0 	bic.w	r2, r2, #240	; 0xf0
 8001180:	ea42 1207 	orr.w	r2, r2, r7, lsl #4
 8001184:	4321      	orrs	r1, r4
 8001186:	619a      	str	r2, [r3, #24]
 8001188:	6219      	str	r1, [r3, #32]
 800118a:	689a      	ldr	r2, [r3, #8]
 800118c:	f022 0270 	bic.w	r2, r2, #112	; 0x70
 8001190:	f042 0257 	orr.w	r2, r2, #87	; 0x57
 8001194:	609a      	str	r2, [r3, #8]
 8001196:	e7a2      	b.n	80010de <HAL_TIM_ConfigClockSource+0x5a>
 8001198:	6a1d      	ldr	r5, [r3, #32]
 800119a:	6a1e      	ldr	r6, [r3, #32]
 800119c:	684c      	ldr	r4, [r1, #4]
 800119e:	f026 0601 	bic.w	r6, r6, #1
 80011a2:	68cf      	ldr	r7, [r1, #12]
 80011a4:	621e      	str	r6, [r3, #32]
 80011a6:	699a      	ldr	r2, [r3, #24]
 80011a8:	f025 010a 	bic.w	r1, r5, #10
 80011ac:	f022 02f0 	bic.w	r2, r2, #240	; 0xf0
 80011b0:	ea42 1207 	orr.w	r2, r2, r7, lsl #4
 80011b4:	4321      	orrs	r1, r4
 80011b6:	619a      	str	r2, [r3, #24]
 80011b8:	6219      	str	r1, [r3, #32]
 80011ba:	689a      	ldr	r2, [r3, #8]
 80011bc:	f022 0270 	bic.w	r2, r2, #112	; 0x70
 80011c0:	f042 0247 	orr.w	r2, r2, #71	; 0x47
 80011c4:	609a      	str	r2, [r3, #8]
 80011c6:	e78a      	b.n	80010de <HAL_TIM_ConfigClockSource+0x5a>
 80011c8:	2c00      	cmp	r4, #0
 80011ca:	d0c3      	beq.n	8001154 <HAL_TIM_ConfigClockSource+0xd0>
 80011cc:	e787      	b.n	80010de <HAL_TIM_ConfigClockSource+0x5a>
 80011ce:	bf00      	nop

080011d0 <HAL_TIM_PeriodElapsedCallback>:
 80011d0:	4770      	bx	lr
 80011d2:	bf00      	nop

080011d4 <HAL_TIM_OC_DelayElapsedCallback>:
 80011d4:	4770      	bx	lr
 80011d6:	bf00      	nop

080011d8 <HAL_TIM_IC_CaptureCallback>:
 80011d8:	4770      	bx	lr
 80011da:	bf00      	nop

080011dc <HAL_TIM_PWM_PulseFinishedCallback>:
 80011dc:	4770      	bx	lr
 80011de:	bf00      	nop

080011e0 <HAL_TIM_TriggerCallback>:
 80011e0:	4770      	bx	lr
 80011e2:	bf00      	nop

080011e4 <HAL_TIM_IRQHandler>:
 80011e4:	6803      	ldr	r3, [r0, #0]
 80011e6:	b510      	push	{r4, lr}
 80011e8:	691a      	ldr	r2, [r3, #16]
 80011ea:	4604      	mov	r4, r0
 80011ec:	0791      	lsls	r1, r2, #30
 80011ee:	d502      	bpl.n	80011f6 <HAL_TIM_IRQHandler+0x12>
 80011f0:	68da      	ldr	r2, [r3, #12]
 80011f2:	0792      	lsls	r2, r2, #30
 80011f4:	d450      	bmi.n	8001298 <HAL_TIM_IRQHandler+0xb4>
 80011f6:	691a      	ldr	r2, [r3, #16]
 80011f8:	0752      	lsls	r2, r2, #29
 80011fa:	d502      	bpl.n	8001202 <HAL_TIM_IRQHandler+0x1e>
 80011fc:	68da      	ldr	r2, [r3, #12]
 80011fe:	0750      	lsls	r0, r2, #29
 8001200:	d437      	bmi.n	8001272 <HAL_TIM_IRQHandler+0x8e>
 8001202:	691a      	ldr	r2, [r3, #16]
 8001204:	0711      	lsls	r1, r2, #28
 8001206:	d502      	bpl.n	800120e <HAL_TIM_IRQHandler+0x2a>
 8001208:	68da      	ldr	r2, [r3, #12]
 800120a:	0712      	lsls	r2, r2, #28
 800120c:	d422      	bmi.n	8001254 <HAL_TIM_IRQHandler+0x70>
 800120e:	691a      	ldr	r2, [r3, #16]
 8001210:	06d0      	lsls	r0, r2, #27
 8001212:	d502      	bpl.n	800121a <HAL_TIM_IRQHandler+0x36>
 8001214:	68da      	ldr	r2, [r3, #12]
 8001216:	06d1      	lsls	r1, r2, #27
 8001218:	d40c      	bmi.n	8001234 <HAL_TIM_IRQHandler+0x50>
 800121a:	691a      	ldr	r2, [r3, #16]
 800121c:	07d2      	lsls	r2, r2, #31
 800121e:	d502      	bpl.n	8001226 <HAL_TIM_IRQHandler+0x42>
 8001220:	68da      	ldr	r2, [r3, #12]
 8001222:	07d0      	lsls	r0, r2, #31
 8001224:	d450      	bmi.n	80012c8 <HAL_TIM_IRQHandler+0xe4>
 8001226:	691a      	ldr	r2, [r3, #16]
 8001228:	0651      	lsls	r1, r2, #25
 800122a:	d502      	bpl.n	8001232 <HAL_TIM_IRQHandler+0x4e>
 800122c:	68da      	ldr	r2, [r3, #12]
 800122e:	0652      	lsls	r2, r2, #25
 8001230:	d443      	bmi.n	80012ba <HAL_TIM_IRQHandler+0xd6>
 8001232:	bd10      	pop	{r4, pc}
 8001234:	f06f 0110 	mvn.w	r1, #16
 8001238:	2208      	movs	r2, #8
 800123a:	6119      	str	r1, [r3, #16]
 800123c:	69db      	ldr	r3, [r3, #28]
 800123e:	4620      	mov	r0, r4
 8001240:	f413 7f40 	tst.w	r3, #768	; 0x300
 8001244:	7622      	strb	r2, [r4, #24]
 8001246:	d047      	beq.n	80012d8 <HAL_TIM_IRQHandler+0xf4>
 8001248:	f7ff ffc6 	bl	80011d8 <HAL_TIM_IC_CaptureCallback>
 800124c:	2200      	movs	r2, #0
 800124e:	6823      	ldr	r3, [r4, #0]
 8001250:	7622      	strb	r2, [r4, #24]
 8001252:	e7e2      	b.n	800121a <HAL_TIM_IRQHandler+0x36>
 8001254:	f06f 0108 	mvn.w	r1, #8
 8001258:	2204      	movs	r2, #4
 800125a:	6119      	str	r1, [r3, #16]
 800125c:	69db      	ldr	r3, [r3, #28]
 800125e:	4620      	mov	r0, r4
 8001260:	079b      	lsls	r3, r3, #30
 8001262:	7622      	strb	r2, [r4, #24]
 8001264:	d044      	beq.n	80012f0 <HAL_TIM_IRQHandler+0x10c>
 8001266:	f7ff ffb7 	bl	80011d8 <HAL_TIM_IC_CaptureCallback>
 800126a:	2200      	movs	r2, #0
 800126c:	6823      	ldr	r3, [r4, #0]
 800126e:	7622      	strb	r2, [r4, #24]
 8001270:	e7cd      	b.n	800120e <HAL_TIM_IRQHandler+0x2a>
 8001272:	f06f 0104 	mvn.w	r1, #4
 8001276:	2202      	movs	r2, #2
 8001278:	6119      	str	r1, [r3, #16]
 800127a:	699b      	ldr	r3, [r3, #24]
 800127c:	4620      	mov	r0, r4
 800127e:	f413 7f40 	tst.w	r3, #768	; 0x300
 8001282:	7622      	strb	r2, [r4, #24]
 8001284:	d131      	bne.n	80012ea <HAL_TIM_IRQHandler+0x106>
 8001286:	f7ff ffa5 	bl	80011d4 <HAL_TIM_OC_DelayElapsedCallback>
 800128a:	4620      	mov	r0, r4
 800128c:	f7ff ffa6 	bl	80011dc <HAL_TIM_PWM_PulseFinishedCallback>
 8001290:	2200      	movs	r2, #0
 8001292:	6823      	ldr	r3, [r4, #0]
 8001294:	7622      	strb	r2, [r4, #24]
 8001296:	e7b4      	b.n	8001202 <HAL_TIM_IRQHandler+0x1e>
 8001298:	f06f 0102 	mvn.w	r1, #2
 800129c:	2201      	movs	r2, #1
 800129e:	6119      	str	r1, [r3, #16]
 80012a0:	699b      	ldr	r3, [r3, #24]
 80012a2:	7602      	strb	r2, [r0, #24]
 80012a4:	0799      	lsls	r1, r3, #30
 80012a6:	d11d      	bne.n	80012e4 <HAL_TIM_IRQHandler+0x100>
 80012a8:	f7ff ff94 	bl	80011d4 <HAL_TIM_OC_DelayElapsedCallback>
 80012ac:	4620      	mov	r0, r4
 80012ae:	f7ff ff95 	bl	80011dc <HAL_TIM_PWM_PulseFinishedCallback>
 80012b2:	2200      	movs	r2, #0
 80012b4:	6823      	ldr	r3, [r4, #0]
 80012b6:	7622      	strb	r2, [r4, #24]
 80012b8:	e79d      	b.n	80011f6 <HAL_TIM_IRQHandler+0x12>
 80012ba:	f06f 0240 	mvn.w	r2, #64	; 0x40
 80012be:	4620      	mov	r0, r4
 80012c0:	611a      	str	r2, [r3, #16]
 80012c2:	f7ff ff8d 	bl	80011e0 <HAL_TIM_TriggerCallback>
 80012c6:	bd10      	pop	{r4, pc}
 80012c8:	f06f 0201 	mvn.w	r2, #1
 80012cc:	4620      	mov	r0, r4
 80012ce:	611a      	str	r2, [r3, #16]
 80012d0:	f7ff ff7e 	bl	80011d0 <HAL_TIM_PeriodElapsedCallback>
 80012d4:	6823      	ldr	r3, [r4, #0]
 80012d6:	e7a6      	b.n	8001226 <HAL_TIM_IRQHandler+0x42>
 80012d8:	f7ff ff7c 	bl	80011d4 <HAL_TIM_OC_DelayElapsedCallback>
 80012dc:	4620      	mov	r0, r4
 80012de:	f7ff ff7d 	bl	80011dc <HAL_TIM_PWM_PulseFinishedCallback>
 80012e2:	e7b3      	b.n	800124c <HAL_TIM_IRQHandler+0x68>
 80012e4:	f7ff ff78 	bl	80011d8 <HAL_TIM_IC_CaptureCallback>
 80012e8:	e7e3      	b.n	80012b2 <HAL_TIM_IRQHandler+0xce>
 80012ea:	f7ff ff75 	bl	80011d8 <HAL_TIM_IC_CaptureCallback>
 80012ee:	e7cf      	b.n	8001290 <HAL_TIM_IRQHandler+0xac>
 80012f0:	f7ff ff70 	bl	80011d4 <HAL_TIM_OC_DelayElapsedCallback>
 80012f4:	4620      	mov	r0, r4
 80012f6:	f7ff ff71 	bl	80011dc <HAL_TIM_PWM_PulseFinishedCallback>
 80012fa:	e7b6      	b.n	800126a <HAL_TIM_IRQHandler+0x86>

080012fc <HAL_TIMEx_MasterConfigSynchronization>:
 80012fc:	f890 2038 	ldrb.w	r2, [r0, #56]	; 0x38
 8001300:	2a01      	cmp	r2, #1
 8001302:	d01a      	beq.n	800133a <HAL_TIMEx_MasterConfigSynchronization+0x3e>
 8001304:	2202      	movs	r2, #2
 8001306:	b4f0      	push	{r4, r5, r6, r7}
 8001308:	4603      	mov	r3, r0
 800130a:	2500      	movs	r5, #0
 800130c:	2601      	movs	r6, #1
 800130e:	6804      	ldr	r4, [r0, #0]
 8001310:	f880 2039 	strb.w	r2, [r0, #57]	; 0x39
 8001314:	6860      	ldr	r0, [r4, #4]
 8001316:	e9d1 2700 	ldrd	r2, r7, [r1]
 800131a:	f020 0170 	bic.w	r1, r0, #112	; 0x70
 800131e:	4311      	orrs	r1, r2
 8001320:	68a2      	ldr	r2, [r4, #8]
 8001322:	4628      	mov	r0, r5
 8001324:	f022 0280 	bic.w	r2, r2, #128	; 0x80
 8001328:	433a      	orrs	r2, r7
 800132a:	6061      	str	r1, [r4, #4]
 800132c:	60a2      	str	r2, [r4, #8]
 800132e:	f883 6039 	strb.w	r6, [r3, #57]	; 0x39
 8001332:	f883 5038 	strb.w	r5, [r3, #56]	; 0x38
 8001336:	bcf0      	pop	{r4, r5, r6, r7}
 8001338:	4770      	bx	lr
 800133a:	2002      	movs	r0, #2
 800133c:	4770      	bx	lr
 800133e:	bf00      	nop

08001340 <HAL_UART_Init>:
 8001340:	2800      	cmp	r0, #0
 8001342:	f000 8087 	beq.w	8001454 <HAL_UART_Init+0x114>
 8001346:	f890 3039 	ldrb.w	r3, [r0, #57]	; 0x39
 800134a:	b570      	push	{r4, r5, r6, lr}
 800134c:	f003 02ff 	and.w	r2, r3, #255	; 0xff
 8001350:	4604      	mov	r4, r0
 8001352:	2b00      	cmp	r3, #0
 8001354:	d079      	beq.n	800144a <HAL_UART_Init+0x10a>
 8001356:	2224      	movs	r2, #36	; 0x24
 8001358:	6823      	ldr	r3, [r4, #0]
 800135a:	f884 2039 	strb.w	r2, [r4, #57]	; 0x39
 800135e:	68da      	ldr	r2, [r3, #12]
 8001360:	68e0      	ldr	r0, [r4, #12]
 8001362:	f422 5200 	bic.w	r2, r2, #8192	; 0x2000
 8001366:	60da      	str	r2, [r3, #12]
 8001368:	6919      	ldr	r1, [r3, #16]
 800136a:	68a2      	ldr	r2, [r4, #8]
 800136c:	f421 5140 	bic.w	r1, r1, #12288	; 0x3000
 8001370:	4301      	orrs	r1, r0
 8001372:	6119      	str	r1, [r3, #16]
 8001374:	6920      	ldr	r0, [r4, #16]
 8001376:	68d9      	ldr	r1, [r3, #12]
 8001378:	6965      	ldr	r5, [r4, #20]
 800137a:	4302      	orrs	r2, r0
 800137c:	69e0      	ldr	r0, [r4, #28]
 800137e:	f421 4116 	bic.w	r1, r1, #38400	; 0x9600
 8001382:	432a      	orrs	r2, r5
 8001384:	f021 010c 	bic.w	r1, r1, #12
 8001388:	4302      	orrs	r2, r0
 800138a:	430a      	orrs	r2, r1
 800138c:	60da      	str	r2, [r3, #12]
 800138e:	695a      	ldr	r2, [r3, #20]
 8001390:	69a1      	ldr	r1, [r4, #24]
 8001392:	f422 7240 	bic.w	r2, r2, #768	; 0x300
 8001396:	430a      	orrs	r2, r1
 8001398:	f5b0 4f00 	cmp.w	r0, #32768	; 0x8000
 800139c:	615a      	str	r2, [r3, #20]
 800139e:	4a31      	ldr	r2, [pc, #196]	; (8001464 <HAL_UART_Init+0x124>)
 80013a0:	d030      	beq.n	8001404 <HAL_UART_Init+0xc4>
 80013a2:	4293      	cmp	r3, r2
 80013a4:	d05b      	beq.n	800145e <HAL_UART_Init+0x11e>
 80013a6:	f7ff fc73 	bl	8000c90 <HAL_RCC_GetPCLK1Freq>
 80013aa:	6862      	ldr	r2, [r4, #4]
 80013ac:	eb00 0080 	add.w	r0, r0, r0, lsl #2
 80013b0:	0092      	lsls	r2, r2, #2
 80013b2:	eb00 0080 	add.w	r0, r0, r0, lsl #2
 80013b6:	fbb0 f0f2 	udiv	r0, r0, r2
 80013ba:	2264      	movs	r2, #100	; 0x64
 80013bc:	4d2a      	ldr	r5, [pc, #168]	; (8001468 <HAL_UART_Init+0x128>)
 80013be:	6823      	ldr	r3, [r4, #0]
 80013c0:	fba5 6100 	umull	r6, r1, r5, r0
 80013c4:	0949      	lsrs	r1, r1, #5
 80013c6:	fb02 0211 	mls	r2, r2, r1, r0
 80013ca:	0112      	lsls	r2, r2, #4
 80013cc:	3232      	adds	r2, #50	; 0x32
 80013ce:	fba5 0202 	umull	r0, r2, r5, r2
 80013d2:	0109      	lsls	r1, r1, #4
 80013d4:	eb01 1252 	add.w	r2, r1, r2, lsr #5
 80013d8:	609a      	str	r2, [r3, #8]
 80013da:	2500      	movs	r5, #0
 80013dc:	2120      	movs	r1, #32
 80013de:	691a      	ldr	r2, [r3, #16]
 80013e0:	4628      	mov	r0, r5
 80013e2:	f422 4290 	bic.w	r2, r2, #18432	; 0x4800
 80013e6:	611a      	str	r2, [r3, #16]
 80013e8:	695a      	ldr	r2, [r3, #20]
 80013ea:	f022 022a 	bic.w	r2, r2, #42	; 0x2a
 80013ee:	615a      	str	r2, [r3, #20]
 80013f0:	68da      	ldr	r2, [r3, #12]
 80013f2:	f442 5200 	orr.w	r2, r2, #8192	; 0x2000
 80013f6:	60da      	str	r2, [r3, #12]
 80013f8:	63e5      	str	r5, [r4, #60]	; 0x3c
 80013fa:	f884 1039 	strb.w	r1, [r4, #57]	; 0x39
 80013fe:	f884 103a 	strb.w	r1, [r4, #58]	; 0x3a
 8001402:	bd70      	pop	{r4, r5, r6, pc}
 8001404:	4293      	cmp	r3, r2
 8001406:	d027      	beq.n	8001458 <HAL_UART_Init+0x118>
 8001408:	f7ff fc42 	bl	8000c90 <HAL_RCC_GetPCLK1Freq>
 800140c:	6862      	ldr	r2, [r4, #4]
 800140e:	eb00 0080 	add.w	r0, r0, r0, lsl #2
 8001412:	0052      	lsls	r2, r2, #1
 8001414:	eb00 0080 	add.w	r0, r0, r0, lsl #2
 8001418:	fbb0 f0f2 	udiv	r0, r0, r2
 800141c:	2264      	movs	r2, #100	; 0x64
 800141e:	4e12      	ldr	r6, [pc, #72]	; (8001468 <HAL_UART_Init+0x128>)
 8001420:	6823      	ldr	r3, [r4, #0]
 8001422:	fba6 5100 	umull	r5, r1, r6, r0
 8001426:	094d      	lsrs	r5, r1, #5
 8001428:	fb02 0215 	mls	r2, r2, r5, r0
 800142c:	00d2      	lsls	r2, r2, #3
 800142e:	3232      	adds	r2, #50	; 0x32
 8001430:	fba6 1202 	umull	r1, r2, r6, r2
 8001434:	0952      	lsrs	r2, r2, #5
 8001436:	f002 0107 	and.w	r1, r2, #7
 800143a:	0052      	lsls	r2, r2, #1
 800143c:	eb01 1105 	add.w	r1, r1, r5, lsl #4
 8001440:	f402 72f8 	and.w	r2, r2, #496	; 0x1f0
 8001444:	440a      	add	r2, r1
 8001446:	609a      	str	r2, [r3, #8]
 8001448:	e7c7      	b.n	80013da <HAL_UART_Init+0x9a>
 800144a:	f880 2038 	strb.w	r2, [r0, #56]	; 0x38
 800144e:	f000 fb07 	bl	8001a60 <HAL_UART_MspInit>
 8001452:	e780      	b.n	8001356 <HAL_UART_Init+0x16>
 8001454:	2001      	movs	r0, #1
 8001456:	4770      	bx	lr
 8001458:	f7ff fc2a 	bl	8000cb0 <HAL_RCC_GetPCLK2Freq>
 800145c:	e7d6      	b.n	800140c <HAL_UART_Init+0xcc>
 800145e:	f7ff fc27 	bl	8000cb0 <HAL_RCC_GetPCLK2Freq>
 8001462:	e7a2      	b.n	80013aa <HAL_UART_Init+0x6a>
 8001464:	40013800 	.word	0x40013800
 8001468:	51eb851f 	.word	0x51eb851f

0800146c <HAL_UART_Transmit>:
 800146c:	b5f0      	push	{r4, r5, r6, r7, lr}
 800146e:	4604      	mov	r4, r0
 8001470:	f890 0039 	ldrb.w	r0, [r0, #57]	; 0x39
 8001474:	b083      	sub	sp, #12
 8001476:	2820      	cmp	r0, #32
 8001478:	d12d      	bne.n	80014d6 <HAL_UART_Transmit+0x6a>
 800147a:	460e      	mov	r6, r1
 800147c:	2900      	cmp	r1, #0
 800147e:	d02d      	beq.n	80014dc <HAL_UART_Transmit+0x70>
 8001480:	9201      	str	r2, [sp, #4]
 8001482:	b35a      	cbz	r2, 80014dc <HAL_UART_Transmit+0x70>
 8001484:	461f      	mov	r7, r3
 8001486:	f894 3038 	ldrb.w	r3, [r4, #56]	; 0x38
 800148a:	2b01      	cmp	r3, #1
 800148c:	d023      	beq.n	80014d6 <HAL_UART_Transmit+0x6a>
 800148e:	2000      	movs	r0, #0
 8001490:	2101      	movs	r1, #1
 8001492:	2321      	movs	r3, #33	; 0x21
 8001494:	63e0      	str	r0, [r4, #60]	; 0x3c
 8001496:	f884 1038 	strb.w	r1, [r4, #56]	; 0x38
 800149a:	f884 3039 	strb.w	r3, [r4, #57]	; 0x39
 800149e:	f7fe feb3 	bl	8000208 <HAL_GetTick>
 80014a2:	4605      	mov	r5, r0
 80014a4:	9a01      	ldr	r2, [sp, #4]
 80014a6:	84a2      	strh	r2, [r4, #36]	; 0x24
 80014a8:	84e2      	strh	r2, [r4, #38]	; 0x26
 80014aa:	6822      	ldr	r2, [r4, #0]
 80014ac:	8ce3      	ldrh	r3, [r4, #38]	; 0x26
 80014ae:	b29b      	uxth	r3, r3
 80014b0:	2b00      	cmp	r3, #0
 80014b2:	d039      	beq.n	8001528 <HAL_UART_Transmit+0xbc>
 80014b4:	8ce0      	ldrh	r0, [r4, #38]	; 0x26
 80014b6:	68a1      	ldr	r1, [r4, #8]
 80014b8:	3801      	subs	r0, #1
 80014ba:	b280      	uxth	r0, r0
 80014bc:	f5b1 5f80 	cmp.w	r1, #4096	; 0x1000
 80014c0:	84e0      	strh	r0, [r4, #38]	; 0x26
 80014c2:	d019      	beq.n	80014f8 <HAL_UART_Transmit+0x8c>
 80014c4:	1c78      	adds	r0, r7, #1
 80014c6:	d13b      	bne.n	8001540 <HAL_UART_Transmit+0xd4>
 80014c8:	6810      	ldr	r0, [r2, #0]
 80014ca:	0601      	lsls	r1, r0, #24
 80014cc:	d5fc      	bpl.n	80014c8 <HAL_UART_Transmit+0x5c>
 80014ce:	7833      	ldrb	r3, [r6, #0]
 80014d0:	3601      	adds	r6, #1
 80014d2:	6053      	str	r3, [r2, #4]
 80014d4:	e7ea      	b.n	80014ac <HAL_UART_Transmit+0x40>
 80014d6:	2002      	movs	r0, #2
 80014d8:	b003      	add	sp, #12
 80014da:	bdf0      	pop	{r4, r5, r6, r7, pc}
 80014dc:	2001      	movs	r0, #1
 80014de:	b003      	add	sp, #12
 80014e0:	bdf0      	pop	{r4, r5, r6, r7, pc}
 80014e2:	6813      	ldr	r3, [r2, #0]
 80014e4:	061b      	lsls	r3, r3, #24
 80014e6:	d40c      	bmi.n	8001502 <HAL_UART_Transmit+0x96>
 80014e8:	2f00      	cmp	r7, #0
 80014ea:	d033      	beq.n	8001554 <HAL_UART_Transmit+0xe8>
 80014ec:	f7fe fe8c 	bl	8000208 <HAL_GetTick>
 80014f0:	1b40      	subs	r0, r0, r5
 80014f2:	4287      	cmp	r7, r0
 80014f4:	6822      	ldr	r2, [r4, #0]
 80014f6:	d32d      	bcc.n	8001554 <HAL_UART_Transmit+0xe8>
 80014f8:	1c78      	adds	r0, r7, #1
 80014fa:	d1f2      	bne.n	80014e2 <HAL_UART_Transmit+0x76>
 80014fc:	6810      	ldr	r0, [r2, #0]
 80014fe:	0601      	lsls	r1, r0, #24
 8001500:	d5fc      	bpl.n	80014fc <HAL_UART_Transmit+0x90>
 8001502:	8833      	ldrh	r3, [r6, #0]
 8001504:	6921      	ldr	r1, [r4, #16]
 8001506:	f3c3 0308 	ubfx	r3, r3, #0, #9
 800150a:	6053      	str	r3, [r2, #4]
 800150c:	2900      	cmp	r1, #0
 800150e:	d134      	bne.n	800157a <HAL_UART_Transmit+0x10e>
 8001510:	3602      	adds	r6, #2
 8001512:	e7cb      	b.n	80014ac <HAL_UART_Transmit+0x40>
 8001514:	6813      	ldr	r3, [r2, #0]
 8001516:	065b      	lsls	r3, r3, #25
 8001518:	d40b      	bmi.n	8001532 <HAL_UART_Transmit+0xc6>
 800151a:	b1df      	cbz	r7, 8001554 <HAL_UART_Transmit+0xe8>
 800151c:	f7fe fe74 	bl	8000208 <HAL_GetTick>
 8001520:	1b40      	subs	r0, r0, r5
 8001522:	4287      	cmp	r7, r0
 8001524:	6822      	ldr	r2, [r4, #0]
 8001526:	d315      	bcc.n	8001554 <HAL_UART_Transmit+0xe8>
 8001528:	1c78      	adds	r0, r7, #1
 800152a:	d1f3      	bne.n	8001514 <HAL_UART_Transmit+0xa8>
 800152c:	6813      	ldr	r3, [r2, #0]
 800152e:	0659      	lsls	r1, r3, #25
 8001530:	d5fc      	bpl.n	800152c <HAL_UART_Transmit+0xc0>
 8001532:	2320      	movs	r3, #32
 8001534:	2000      	movs	r0, #0
 8001536:	f884 3039 	strb.w	r3, [r4, #57]	; 0x39
 800153a:	f884 0038 	strb.w	r0, [r4, #56]	; 0x38
 800153e:	e7cb      	b.n	80014d8 <HAL_UART_Transmit+0x6c>
 8001540:	6813      	ldr	r3, [r2, #0]
 8001542:	061b      	lsls	r3, r3, #24
 8001544:	d4c3      	bmi.n	80014ce <HAL_UART_Transmit+0x62>
 8001546:	b12f      	cbz	r7, 8001554 <HAL_UART_Transmit+0xe8>
 8001548:	f7fe fe5e 	bl	8000208 <HAL_GetTick>
 800154c:	1b40      	subs	r0, r0, r5
 800154e:	4287      	cmp	r7, r0
 8001550:	6822      	ldr	r2, [r4, #0]
 8001552:	d2b7      	bcs.n	80014c4 <HAL_UART_Transmit+0x58>
 8001554:	2120      	movs	r1, #32
 8001556:	2500      	movs	r5, #0
 8001558:	2003      	movs	r0, #3
 800155a:	68d3      	ldr	r3, [r2, #12]
 800155c:	f423 73d0 	bic.w	r3, r3, #416	; 0x1a0
 8001560:	60d3      	str	r3, [r2, #12]
 8001562:	6953      	ldr	r3, [r2, #20]
 8001564:	f023 0301 	bic.w	r3, r3, #1
 8001568:	6153      	str	r3, [r2, #20]
 800156a:	f884 1039 	strb.w	r1, [r4, #57]	; 0x39
 800156e:	f884 5038 	strb.w	r5, [r4, #56]	; 0x38
 8001572:	f884 103a 	strb.w	r1, [r4, #58]	; 0x3a
 8001576:	b003      	add	sp, #12
 8001578:	bdf0      	pop	{r4, r5, r6, r7, pc}
 800157a:	3601      	adds	r6, #1
 800157c:	e796      	b.n	80014ac <HAL_UART_Transmit+0x40>
 800157e:	bf00      	nop

08001580 <HAL_UART_Receive>:
 8001580:	e92d 41f0 	stmdb	sp!, {r4, r5, r6, r7, r8, lr}
 8001584:	4605      	mov	r5, r0
 8001586:	f890 003a 	ldrb.w	r0, [r0, #58]	; 0x3a
 800158a:	b082      	sub	sp, #8
 800158c:	2820      	cmp	r0, #32
 800158e:	d133      	bne.n	80015f8 <HAL_UART_Receive+0x78>
 8001590:	460f      	mov	r7, r1
 8001592:	2900      	cmp	r1, #0
 8001594:	d034      	beq.n	8001600 <HAL_UART_Receive+0x80>
 8001596:	9201      	str	r2, [sp, #4]
 8001598:	2a00      	cmp	r2, #0
 800159a:	d031      	beq.n	8001600 <HAL_UART_Receive+0x80>
 800159c:	4698      	mov	r8, r3
 800159e:	f895 3038 	ldrb.w	r3, [r5, #56]	; 0x38
 80015a2:	2b01      	cmp	r3, #1
 80015a4:	d028      	beq.n	80015f8 <HAL_UART_Receive+0x78>
 80015a6:	2000      	movs	r0, #0
 80015a8:	2101      	movs	r1, #1
 80015aa:	2322      	movs	r3, #34	; 0x22
 80015ac:	63e8      	str	r0, [r5, #60]	; 0x3c
 80015ae:	f885 1038 	strb.w	r1, [r5, #56]	; 0x38
 80015b2:	f885 303a 	strb.w	r3, [r5, #58]	; 0x3a
 80015b6:	f7fe fe27 	bl	8000208 <HAL_GetTick>
 80015ba:	4606      	mov	r6, r0
 80015bc:	9a01      	ldr	r2, [sp, #4]
 80015be:	85aa      	strh	r2, [r5, #44]	; 0x2c
 80015c0:	85ea      	strh	r2, [r5, #46]	; 0x2e
 80015c2:	8de8      	ldrh	r0, [r5, #46]	; 0x2e
 80015c4:	b280      	uxth	r0, r0
 80015c6:	2800      	cmp	r0, #0
 80015c8:	d061      	beq.n	800168e <HAL_UART_Receive+0x10e>
 80015ca:	8dea      	ldrh	r2, [r5, #46]	; 0x2e
 80015cc:	68ab      	ldr	r3, [r5, #8]
 80015ce:	3a01      	subs	r2, #1
 80015d0:	b292      	uxth	r2, r2
 80015d2:	f5b3 5f80 	cmp.w	r3, #4096	; 0x1000
 80015d6:	85ea      	strh	r2, [r5, #46]	; 0x2e
 80015d8:	d021      	beq.n	800161e <HAL_UART_Receive+0x9e>
 80015da:	f1b8 3fff 	cmp.w	r8, #4294967295	; 0xffffffff
 80015de:	682c      	ldr	r4, [r5, #0]
 80015e0:	d12c      	bne.n	800163c <HAL_UART_Receive+0xbc>
 80015e2:	6822      	ldr	r2, [r4, #0]
 80015e4:	0692      	lsls	r2, r2, #26
 80015e6:	d5fc      	bpl.n	80015e2 <HAL_UART_Receive+0x62>
 80015e8:	692b      	ldr	r3, [r5, #16]
 80015ea:	1c7a      	adds	r2, r7, #1
 80015ec:	2b00      	cmp	r3, #0
 80015ee:	d143      	bne.n	8001678 <HAL_UART_Receive+0xf8>
 80015f0:	6863      	ldr	r3, [r4, #4]
 80015f2:	703b      	strb	r3, [r7, #0]
 80015f4:	4617      	mov	r7, r2
 80015f6:	e7e4      	b.n	80015c2 <HAL_UART_Receive+0x42>
 80015f8:	2002      	movs	r0, #2
 80015fa:	b002      	add	sp, #8
 80015fc:	e8bd 81f0 	ldmia.w	sp!, {r4, r5, r6, r7, r8, pc}
 8001600:	2001      	movs	r0, #1
 8001602:	b002      	add	sp, #8
 8001604:	e8bd 81f0 	ldmia.w	sp!, {r4, r5, r6, r7, r8, pc}
 8001608:	680b      	ldr	r3, [r1, #0]
 800160a:	0698      	lsls	r0, r3, #26
 800160c:	d40e      	bmi.n	800162c <HAL_UART_Receive+0xac>
 800160e:	f1b8 0f00 	cmp.w	r8, #0
 8001612:	d043      	beq.n	800169c <HAL_UART_Receive+0x11c>
 8001614:	f7fe fdf8 	bl	8000208 <HAL_GetTick>
 8001618:	1b80      	subs	r0, r0, r6
 800161a:	4580      	cmp	r8, r0
 800161c:	d33d      	bcc.n	800169a <HAL_UART_Receive+0x11a>
 800161e:	f1b8 3fff 	cmp.w	r8, #4294967295	; 0xffffffff
 8001622:	6829      	ldr	r1, [r5, #0]
 8001624:	d1f0      	bne.n	8001608 <HAL_UART_Receive+0x88>
 8001626:	680a      	ldr	r2, [r1, #0]
 8001628:	0694      	lsls	r4, r2, #26
 800162a:	d5fc      	bpl.n	8001626 <HAL_UART_Receive+0xa6>
 800162c:	692b      	ldr	r3, [r5, #16]
 800162e:	bb4b      	cbnz	r3, 8001684 <HAL_UART_Receive+0x104>
 8001630:	684b      	ldr	r3, [r1, #4]
 8001632:	f3c3 0308 	ubfx	r3, r3, #0, #9
 8001636:	f827 3b02 	strh.w	r3, [r7], #2
 800163a:	e7c2      	b.n	80015c2 <HAL_UART_Receive+0x42>
 800163c:	6823      	ldr	r3, [r4, #0]
 800163e:	069b      	lsls	r3, r3, #26
 8001640:	d4d2      	bmi.n	80015e8 <HAL_UART_Receive+0x68>
 8001642:	f1b8 0f00 	cmp.w	r8, #0
 8001646:	d005      	beq.n	8001654 <HAL_UART_Receive+0xd4>
 8001648:	f7fe fdde 	bl	8000208 <HAL_GetTick>
 800164c:	1b80      	subs	r0, r0, r6
 800164e:	4580      	cmp	r8, r0
 8001650:	d2c3      	bcs.n	80015da <HAL_UART_Receive+0x5a>
 8001652:	682c      	ldr	r4, [r5, #0]
 8001654:	2220      	movs	r2, #32
 8001656:	2100      	movs	r1, #0
 8001658:	68e3      	ldr	r3, [r4, #12]
 800165a:	2003      	movs	r0, #3
 800165c:	f423 73d0 	bic.w	r3, r3, #416	; 0x1a0
 8001660:	60e3      	str	r3, [r4, #12]
 8001662:	6963      	ldr	r3, [r4, #20]
 8001664:	f023 0301 	bic.w	r3, r3, #1
 8001668:	6163      	str	r3, [r4, #20]
 800166a:	f885 2039 	strb.w	r2, [r5, #57]	; 0x39
 800166e:	f885 1038 	strb.w	r1, [r5, #56]	; 0x38
 8001672:	f885 203a 	strb.w	r2, [r5, #58]	; 0x3a
 8001676:	e7c0      	b.n	80015fa <HAL_UART_Receive+0x7a>
 8001678:	6863      	ldr	r3, [r4, #4]
 800167a:	f003 037f 	and.w	r3, r3, #127	; 0x7f
 800167e:	703b      	strb	r3, [r7, #0]
 8001680:	4617      	mov	r7, r2
 8001682:	e79e      	b.n	80015c2 <HAL_UART_Receive+0x42>
 8001684:	684b      	ldr	r3, [r1, #4]
 8001686:	b2db      	uxtb	r3, r3
 8001688:	f827 3b01 	strh.w	r3, [r7], #1
 800168c:	e799      	b.n	80015c2 <HAL_UART_Receive+0x42>
 800168e:	2320      	movs	r3, #32
 8001690:	f885 0038 	strb.w	r0, [r5, #56]	; 0x38
 8001694:	f885 303a 	strb.w	r3, [r5, #58]	; 0x3a
 8001698:	e7af      	b.n	80015fa <HAL_UART_Receive+0x7a>
 800169a:	6829      	ldr	r1, [r5, #0]
 800169c:	2220      	movs	r2, #32
 800169e:	2400      	movs	r4, #0
 80016a0:	68cb      	ldr	r3, [r1, #12]
 80016a2:	2003      	movs	r0, #3
 80016a4:	f423 73d0 	bic.w	r3, r3, #416	; 0x1a0
 80016a8:	60cb      	str	r3, [r1, #12]
 80016aa:	694b      	ldr	r3, [r1, #20]
 80016ac:	f023 0301 	bic.w	r3, r3, #1
 80016b0:	614b      	str	r3, [r1, #20]
 80016b2:	f885 2039 	strb.w	r2, [r5, #57]	; 0x39
 80016b6:	f885 4038 	strb.w	r4, [r5, #56]	; 0x38
 80016ba:	f885 203a 	strb.w	r2, [r5, #58]	; 0x3a
 80016be:	e79c      	b.n	80015fa <HAL_UART_Receive+0x7a>

080016c0 <__io_putchar>:
 80016c0:	b500      	push	{lr}
 80016c2:	b083      	sub	sp, #12
 80016c4:	a902      	add	r1, sp, #8
 80016c6:	f841 0d04 	str.w	r0, [r1, #-4]!
 80016ca:	f64f 73ff 	movw	r3, #65535	; 0xffff
 80016ce:	2201      	movs	r2, #1
 80016d0:	4803      	ldr	r0, [pc, #12]	; (80016e0 <__io_putchar+0x20>)
 80016d2:	f7ff fecb 	bl	800146c <HAL_UART_Transmit>
 80016d6:	9801      	ldr	r0, [sp, #4]
 80016d8:	b003      	add	sp, #12
 80016da:	f85d fb04 	ldr.w	pc, [sp], #4
 80016de:	bf00      	nop
 80016e0:	20000118 	.word	0x20000118

080016e4 <__io_getchar>:
 80016e4:	b500      	push	{lr}
 80016e6:	b083      	sub	sp, #12
 80016e8:	f64f 73ff 	movw	r3, #65535	; 0xffff
 80016ec:	2201      	movs	r2, #1
 80016ee:	f10d 0107 	add.w	r1, sp, #7
 80016f2:	4804      	ldr	r0, [pc, #16]	; (8001704 <__io_getchar+0x20>)
 80016f4:	f7ff ff44 	bl	8001580 <HAL_UART_Receive>
 80016f8:	f89d 0007 	ldrb.w	r0, [sp, #7]
 80016fc:	b003      	add	sp, #12
 80016fe:	f85d fb04 	ldr.w	pc, [sp], #4
 8001702:	bf00      	nop
 8001704:	20000118 	.word	0x20000118

08001708 <SystemClock_Config>:
 8001708:	b5f0      	push	{r4, r5, r6, r7, lr}
 800170a:	2400      	movs	r4, #0
 800170c:	b093      	sub	sp, #76	; 0x4c
 800170e:	4621      	mov	r1, r4
 8001710:	2220      	movs	r2, #32
 8001712:	a806      	add	r0, sp, #24
 8001714:	f000 fadc 	bl	8001cd0 <memset>
 8001718:	2501      	movs	r5, #1
 800171a:	2010      	movs	r0, #16
 800171c:	2202      	movs	r2, #2
 800171e:	f44f 2700 	mov.w	r7, #524288	; 0x80000
 8001722:	f44f 0600 	mov.w	r6, #8388608	; 0x800000
 8001726:	e9cd 4400 	strd	r4, r4, [sp]
 800172a:	e9cd 4402 	strd	r4, r4, [sp, #8]
 800172e:	490f      	ldr	r1, [pc, #60]	; (800176c <SystemClock_Config+0x64>)
 8001730:	9404      	str	r4, [sp, #16]
 8001732:	680b      	ldr	r3, [r1, #0]
 8001734:	f423 53c0 	bic.w	r3, r3, #6144	; 0x1800
 8001738:	f443 6300 	orr.w	r3, r3, #2048	; 0x800
 800173c:	600b      	str	r3, [r1, #0]
 800173e:	e9cd 5008 	strd	r5, r0, [sp, #32]
 8001742:	a805      	add	r0, sp, #20
 8001744:	9205      	str	r2, [sp, #20]
 8001746:	920e      	str	r2, [sp, #56]	; 0x38
 8001748:	940f      	str	r4, [sp, #60]	; 0x3c
 800174a:	e9cd 7610 	strd	r7, r6, [sp, #64]	; 0x40
 800174e:	f7fe fed9 	bl	8000504 <HAL_RCC_OscConfig>
 8001752:	220f      	movs	r2, #15
 8001754:	2303      	movs	r3, #3
 8001756:	4629      	mov	r1, r5
 8001758:	4668      	mov	r0, sp
 800175a:	e9cd 4402 	strd	r4, r4, [sp, #8]
 800175e:	9404      	str	r4, [sp, #16]
 8001760:	e9cd 2300 	strd	r2, r3, [sp]
 8001764:	f7ff f9aa 	bl	8000abc <HAL_RCC_ClockConfig>
 8001768:	b013      	add	sp, #76	; 0x4c
 800176a:	bdf0      	pop	{r4, r5, r6, r7, pc}
 800176c:	40007000 	.word	0x40007000

08001770 <main>:
 8001770:	2400      	movs	r4, #0
 8001772:	b580      	push	{r7, lr}
 8001774:	2701      	movs	r7, #1
 8001776:	b08e      	sub	sp, #56	; 0x38
 8001778:	f7fe fd26 	bl	80001c8 <HAL_Init>
 800177c:	f7ff ffc4 	bl	8001708 <SystemClock_Config>
 8001780:	e9cd 4409 	strd	r4, r4, [sp, #36]	; 0x24
 8001784:	e9cd 440b 	strd	r4, r4, [sp, #44]	; 0x2c
 8001788:	4b62      	ldr	r3, [pc, #392]	; (8001914 <main+0x1a4>)
 800178a:	940d      	str	r4, [sp, #52]	; 0x34
 800178c:	69d9      	ldr	r1, [r3, #28]
 800178e:	4622      	mov	r2, r4
 8001790:	f041 0104 	orr.w	r1, r1, #4
 8001794:	61d9      	str	r1, [r3, #28]
 8001796:	69d8      	ldr	r0, [r3, #28]
 8001798:	2122      	movs	r1, #34	; 0x22
 800179a:	f000 0004 	and.w	r0, r0, #4
 800179e:	9000      	str	r0, [sp, #0]
 80017a0:	9800      	ldr	r0, [sp, #0]
 80017a2:	69dd      	ldr	r5, [r3, #28]
 80017a4:	485c      	ldr	r0, [pc, #368]	; (8001918 <main+0x1a8>)
 80017a6:	f045 0520 	orr.w	r5, r5, #32
 80017aa:	61dd      	str	r5, [r3, #28]
 80017ac:	69dd      	ldr	r5, [r3, #28]
 80017ae:	4e5b      	ldr	r6, [pc, #364]	; (800191c <main+0x1ac>)
 80017b0:	f005 0520 	and.w	r5, r5, #32
 80017b4:	9501      	str	r5, [sp, #4]
 80017b6:	9d01      	ldr	r5, [sp, #4]
 80017b8:	69dd      	ldr	r5, [r3, #28]
 80017ba:	f44f 5880 	mov.w	r8, #4096	; 0x1000
 80017be:	433d      	orrs	r5, r7
 80017c0:	61dd      	str	r5, [r3, #28]
 80017c2:	69db      	ldr	r3, [r3, #28]
 80017c4:	4d56      	ldr	r5, [pc, #344]	; (8001920 <main+0x1b0>)
 80017c6:	403b      	ands	r3, r7
 80017c8:	9302      	str	r3, [sp, #8]
 80017ca:	9b02      	ldr	r3, [sp, #8]
 80017cc:	f7fe fe84 	bl	80004d8 <HAL_GPIO_WritePin>
 80017d0:	f44f 5200 	mov.w	r2, #8192	; 0x2000
 80017d4:	4b53      	ldr	r3, [pc, #332]	; (8001924 <main+0x1b4>)
 80017d6:	a909      	add	r1, sp, #36	; 0x24
 80017d8:	4853      	ldr	r0, [pc, #332]	; (8001928 <main+0x1b8>)
 80017da:	e9cd 2309 	strd	r2, r3, [sp, #36]	; 0x24
 80017de:	940b      	str	r4, [sp, #44]	; 0x2c
 80017e0:	f7fe fd86 	bl	80002f0 <HAL_GPIO_Init>
 80017e4:	2322      	movs	r3, #34	; 0x22
 80017e6:	a909      	add	r1, sp, #36	; 0x24
 80017e8:	484b      	ldr	r0, [pc, #300]	; (8001918 <main+0x1a8>)
 80017ea:	e9cd 3709 	strd	r3, r7, [sp, #36]	; 0x24
 80017ee:	e9cd 440b 	strd	r4, r4, [sp, #44]	; 0x2c
 80017f2:	f7fe fd7d 	bl	80002f0 <HAL_GPIO_Init>
 80017f6:	4622      	mov	r2, r4
 80017f8:	4621      	mov	r1, r4
 80017fa:	2028      	movs	r0, #40	; 0x28
 80017fc:	f7fe fd1c 	bl	8000238 <HAL_NVIC_SetPriority>
 8001800:	2028      	movs	r0, #40	; 0x28
 8001802:	f7fe fd4f 	bl	80002a4 <HAL_NVIC_EnableIRQ>
 8001806:	220c      	movs	r2, #12
 8001808:	f644 4190 	movw	r1, #19600	; 0x4c90
 800180c:	4b47      	ldr	r3, [pc, #284]	; (800192c <main+0x1bc>)
 800180e:	4618      	mov	r0, r3
 8001810:	615a      	str	r2, [r3, #20]
 8001812:	e9c3 6100 	strd	r6, r1, [r3]
 8001816:	e9c3 4402 	strd	r4, r4, [r3, #8]
 800181a:	611c      	str	r4, [r3, #16]
 800181c:	e9c3 4406 	strd	r4, r4, [r3, #24]
 8001820:	f7ff fd8e 	bl	8001340 <HAL_UART_Init>
 8001824:	f04f 4380 	mov.w	r3, #1073741824	; 0x40000000
 8001828:	4628      	mov	r0, r5
 800182a:	602b      	str	r3, [r5, #0]
 800182c:	e9c5 4401 	strd	r4, r4, [r5, #4]
 8001830:	e9c5 4403 	strd	r4, r4, [r5, #12]
 8001834:	616c      	str	r4, [r5, #20]
 8001836:	9405      	str	r4, [sp, #20]
 8001838:	9403      	str	r4, [sp, #12]
 800183a:	e9cd 4409 	strd	r4, r4, [sp, #36]	; 0x24
 800183e:	e9cd 440b 	strd	r4, r4, [sp, #44]	; 0x2c
 8001842:	e9cd 4406 	strd	r4, r4, [sp, #24]
 8001846:	9408      	str	r4, [sp, #32]
 8001848:	9404      	str	r4, [sp, #16]
 800184a:	f7ff fa41 	bl	8000cd0 <HAL_TIM_Base_Init>
 800184e:	a905      	add	r1, sp, #20
 8001850:	4628      	mov	r0, r5
 8001852:	f8cd 8014 	str.w	r8, [sp, #20]
 8001856:	f7ff fc15 	bl	8001084 <HAL_TIM_ConfigClockSource>
 800185a:	4628      	mov	r0, r5
 800185c:	f7ff faa4 	bl	8000da8 <HAL_TIM_IC_Init>
 8001860:	a903      	add	r1, sp, #12
 8001862:	4628      	mov	r0, r5
 8001864:	4e32      	ldr	r6, [pc, #200]	; (8001930 <main+0x1c0>)
 8001866:	e9cd 4403 	strd	r4, r4, [sp, #12]
 800186a:	f7ff fd47 	bl	80012fc <HAL_TIMEx_MasterConfigSynchronization>
 800186e:	4622      	mov	r2, r4
 8001870:	a909      	add	r1, sp, #36	; 0x24
 8001872:	4628      	mov	r0, r5
 8001874:	e9cd 4709 	strd	r4, r7, [sp, #36]	; 0x24
 8001878:	e9cd 440b 	strd	r4, r4, [sp, #44]	; 0x2c
 800187c:	f7ff fb4c 	bl	8000f18 <HAL_TIM_IC_ConfigChannel>
 8001880:	4b2c      	ldr	r3, [pc, #176]	; (8001934 <main+0x1c4>)
 8001882:	4630      	mov	r0, r6
 8001884:	6033      	str	r3, [r6, #0]
 8001886:	e9cd 4405 	strd	r4, r4, [sp, #20]
 800188a:	e9cd 4407 	strd	r4, r4, [sp, #28]
 800188e:	e9cd 4403 	strd	r4, r4, [sp, #12]
 8001892:	e9cd 4409 	strd	r4, r4, [sp, #36]	; 0x24
 8001896:	e9cd 440b 	strd	r4, r4, [sp, #44]	; 0x2c
 800189a:	e9c6 4401 	strd	r4, r4, [r6, #4]
 800189e:	e9c6 4403 	strd	r4, r4, [r6, #12]
 80018a2:	6174      	str	r4, [r6, #20]
 80018a4:	f7ff fa14 	bl	8000cd0 <HAL_TIM_Base_Init>
 80018a8:	a905      	add	r1, sp, #20
 80018aa:	4630      	mov	r0, r6
 80018ac:	f8cd 8014 	str.w	r8, [sp, #20]
 80018b0:	f7ff fbe8 	bl	8001084 <HAL_TIM_ConfigClockSource>
 80018b4:	4630      	mov	r0, r6
 80018b6:	f7ff fa77 	bl	8000da8 <HAL_TIM_IC_Init>
 80018ba:	a903      	add	r1, sp, #12
 80018bc:	4630      	mov	r0, r6
 80018be:	e9cd 4403 	strd	r4, r4, [sp, #12]
 80018c2:	f7ff fd1b 	bl	80012fc <HAL_TIMEx_MasterConfigSynchronization>
 80018c6:	a909      	add	r1, sp, #36	; 0x24
 80018c8:	4622      	mov	r2, r4
 80018ca:	4630      	mov	r0, r6
 80018cc:	e9cd 4709 	strd	r4, r7, [sp, #36]	; 0x24
 80018d0:	e9cd 440b 	strd	r4, r4, [sp, #44]	; 0x2c
 80018d4:	f7ff fb20 	bl	8000f18 <HAL_TIM_IC_ConfigChannel>
 80018d8:	4b17      	ldr	r3, [pc, #92]	; (8001938 <main+0x1c8>)
 80018da:	4a18      	ldr	r2, [pc, #96]	; (800193c <main+0x1cc>)
 80018dc:	601c      	str	r4, [r3, #0]
 80018de:	6813      	ldr	r3, [r2, #0]
 80018e0:	2028      	movs	r0, #40	; 0x28
 80018e2:	f443 5300 	orr.w	r3, r3, #8192	; 0x2000
 80018e6:	6013      	str	r3, [r2, #0]
 80018e8:	f7fe fcdc 	bl	80002a4 <HAL_NVIC_EnableIRQ>
 80018ec:	4621      	mov	r1, r4
 80018ee:	4628      	mov	r0, r5
 80018f0:	f7ff fada 	bl	8000ea8 <HAL_TIM_IC_Stop_IT>
 80018f4:	4628      	mov	r0, r5
 80018f6:	4d12      	ldr	r5, [pc, #72]	; (8001940 <main+0x1d0>)
 80018f8:	f7ff fa44 	bl	8000d84 <HAL_TIM_Base_Stop_IT>
 80018fc:	201c      	movs	r0, #28
 80018fe:	f7fe fcd1 	bl	80002a4 <HAL_NVIC_EnableIRQ>
 8001902:	782b      	ldrb	r3, [r5, #0]
 8001904:	b903      	cbnz	r3, 8001908 <main+0x198>
 8001906:	e7fe      	b.n	8001906 <main+0x196>
 8001908:	480e      	ldr	r0, [pc, #56]	; (8001944 <main+0x1d4>)
 800190a:	f000 f9e9 	bl	8001ce0 <iprintf>
 800190e:	702c      	strb	r4, [r5, #0]
 8001910:	e7f9      	b.n	8001906 <main+0x196>
 8001912:	bf00      	nop
 8001914:	40023800 	.word	0x40023800
 8001918:	40020000 	.word	0x40020000
 800191c:	40004400 	.word	0x40004400
 8001920:	200000dc 	.word	0x200000dc
 8001924:	10110000 	.word	0x10110000
 8001928:	40020800 	.word	0x40020800
 800192c:	20000118 	.word	0x20000118
 8001930:	200000a0 	.word	0x200000a0
 8001934:	40000400 	.word	0x40000400
 8001938:	e000e010 	.word	0xe000e010
 800193c:	40010400 	.word	0x40010400
 8001940:	2000008c 	.word	0x2000008c
 8001944:	08002ad4 	.word	0x08002ad4

08001948 <HAL_GPIO_EXTI_Callback>:
 8001948:	2201      	movs	r2, #1
 800194a:	4b03      	ldr	r3, [pc, #12]	; (8001958 <HAL_GPIO_EXTI_Callback+0x10>)
 800194c:	2120      	movs	r1, #32
 800194e:	4803      	ldr	r0, [pc, #12]	; (800195c <HAL_GPIO_EXTI_Callback+0x14>)
 8001950:	701a      	strb	r2, [r3, #0]
 8001952:	f7fe bdc5 	b.w	80004e0 <HAL_GPIO_TogglePin>
 8001956:	bf00      	nop
 8001958:	2000008c 	.word	0x2000008c
 800195c:	40020000 	.word	0x40020000

08001960 <HAL_MspInit>:
 8001960:	4b0f      	ldr	r3, [pc, #60]	; (80019a0 <HAL_MspInit+0x40>)
 8001962:	b084      	sub	sp, #16
 8001964:	6a5a      	ldr	r2, [r3, #36]	; 0x24
 8001966:	f042 4200 	orr.w	r2, r2, #2147483648	; 0x80000000
 800196a:	625a      	str	r2, [r3, #36]	; 0x24
 800196c:	6a5a      	ldr	r2, [r3, #36]	; 0x24
 800196e:	f002 4200 	and.w	r2, r2, #2147483648	; 0x80000000
 8001972:	9201      	str	r2, [sp, #4]
 8001974:	9a01      	ldr	r2, [sp, #4]
 8001976:	6a1a      	ldr	r2, [r3, #32]
 8001978:	f042 0201 	orr.w	r2, r2, #1
 800197c:	621a      	str	r2, [r3, #32]
 800197e:	6a1a      	ldr	r2, [r3, #32]
 8001980:	f002 0201 	and.w	r2, r2, #1
 8001984:	9202      	str	r2, [sp, #8]
 8001986:	9a02      	ldr	r2, [sp, #8]
 8001988:	6a5a      	ldr	r2, [r3, #36]	; 0x24
 800198a:	f042 5280 	orr.w	r2, r2, #268435456	; 0x10000000
 800198e:	625a      	str	r2, [r3, #36]	; 0x24
 8001990:	6a5b      	ldr	r3, [r3, #36]	; 0x24
 8001992:	f003 5380 	and.w	r3, r3, #268435456	; 0x10000000
 8001996:	9303      	str	r3, [sp, #12]
 8001998:	9b03      	ldr	r3, [sp, #12]
 800199a:	b004      	add	sp, #16
 800199c:	4770      	bx	lr
 800199e:	bf00      	nop
 80019a0:	40023800 	.word	0x40023800

080019a4 <HAL_TIM_Base_MspInit>:
 80019a4:	b570      	push	{r4, r5, r6, lr}
 80019a6:	2400      	movs	r4, #0
 80019a8:	6803      	ldr	r3, [r0, #0]
 80019aa:	b08a      	sub	sp, #40	; 0x28
 80019ac:	f1b3 4f80 	cmp.w	r3, #1073741824	; 0x40000000
 80019b0:	e9cd 4405 	strd	r4, r4, [sp, #20]
 80019b4:	e9cd 4407 	strd	r4, r4, [sp, #28]
 80019b8:	9409      	str	r4, [sp, #36]	; 0x24
 80019ba:	d028      	beq.n	8001a0e <HAL_TIM_Base_MspInit+0x6a>
 80019bc:	4a25      	ldr	r2, [pc, #148]	; (8001a54 <HAL_TIM_Base_MspInit+0xb0>)
 80019be:	4293      	cmp	r3, r2
 80019c0:	d001      	beq.n	80019c6 <HAL_TIM_Base_MspInit+0x22>
 80019c2:	b00a      	add	sp, #40	; 0x28
 80019c4:	bd70      	pop	{r4, r5, r6, pc}
 80019c6:	2502      	movs	r5, #2
 80019c8:	2040      	movs	r0, #64	; 0x40
 80019ca:	4b23      	ldr	r3, [pc, #140]	; (8001a58 <HAL_TIM_Base_MspInit+0xb4>)
 80019cc:	a905      	add	r1, sp, #20
 80019ce:	6a5a      	ldr	r2, [r3, #36]	; 0x24
 80019d0:	432a      	orrs	r2, r5
 80019d2:	625a      	str	r2, [r3, #36]	; 0x24
 80019d4:	6a5a      	ldr	r2, [r3, #36]	; 0x24
 80019d6:	402a      	ands	r2, r5
 80019d8:	9203      	str	r2, [sp, #12]
 80019da:	9a03      	ldr	r2, [sp, #12]
 80019dc:	69da      	ldr	r2, [r3, #28]
 80019de:	f042 0201 	orr.w	r2, r2, #1
 80019e2:	61da      	str	r2, [r3, #28]
 80019e4:	69db      	ldr	r3, [r3, #28]
 80019e6:	9005      	str	r0, [sp, #20]
 80019e8:	f003 0301 	and.w	r3, r3, #1
 80019ec:	9304      	str	r3, [sp, #16]
 80019ee:	481b      	ldr	r0, [pc, #108]	; (8001a5c <HAL_TIM_Base_MspInit+0xb8>)
 80019f0:	9b04      	ldr	r3, [sp, #16]
 80019f2:	9506      	str	r5, [sp, #24]
 80019f4:	9509      	str	r5, [sp, #36]	; 0x24
 80019f6:	f7fe fc7b 	bl	80002f0 <HAL_GPIO_Init>
 80019fa:	4622      	mov	r2, r4
 80019fc:	4621      	mov	r1, r4
 80019fe:	201d      	movs	r0, #29
 8001a00:	f7fe fc1a 	bl	8000238 <HAL_NVIC_SetPriority>
 8001a04:	201d      	movs	r0, #29
 8001a06:	f7fe fc4d 	bl	80002a4 <HAL_NVIC_EnableIRQ>
 8001a0a:	b00a      	add	sp, #40	; 0x28
 8001a0c:	bd70      	pop	{r4, r5, r6, pc}
 8001a0e:	2501      	movs	r5, #1
 8001a10:	2602      	movs	r6, #2
 8001a12:	f503 330e 	add.w	r3, r3, #145408	; 0x23800
 8001a16:	6a5a      	ldr	r2, [r3, #36]	; 0x24
 8001a18:	a905      	add	r1, sp, #20
 8001a1a:	432a      	orrs	r2, r5
 8001a1c:	625a      	str	r2, [r3, #36]	; 0x24
 8001a1e:	6a5a      	ldr	r2, [r3, #36]	; 0x24
 8001a20:	480e      	ldr	r0, [pc, #56]	; (8001a5c <HAL_TIM_Base_MspInit+0xb8>)
 8001a22:	402a      	ands	r2, r5
 8001a24:	9201      	str	r2, [sp, #4]
 8001a26:	9a01      	ldr	r2, [sp, #4]
 8001a28:	69da      	ldr	r2, [r3, #28]
 8001a2a:	432a      	orrs	r2, r5
 8001a2c:	61da      	str	r2, [r3, #28]
 8001a2e:	69db      	ldr	r3, [r3, #28]
 8001a30:	9505      	str	r5, [sp, #20]
 8001a32:	402b      	ands	r3, r5
 8001a34:	9302      	str	r3, [sp, #8]
 8001a36:	9b02      	ldr	r3, [sp, #8]
 8001a38:	9509      	str	r5, [sp, #36]	; 0x24
 8001a3a:	9606      	str	r6, [sp, #24]
 8001a3c:	f7fe fc58 	bl	80002f0 <HAL_GPIO_Init>
 8001a40:	4622      	mov	r2, r4
 8001a42:	4621      	mov	r1, r4
 8001a44:	201c      	movs	r0, #28
 8001a46:	f7fe fbf7 	bl	8000238 <HAL_NVIC_SetPriority>
 8001a4a:	201c      	movs	r0, #28
 8001a4c:	f7fe fc2a 	bl	80002a4 <HAL_NVIC_EnableIRQ>
 8001a50:	b00a      	add	sp, #40	; 0x28
 8001a52:	bd70      	pop	{r4, r5, r6, pc}
 8001a54:	40000400 	.word	0x40000400
 8001a58:	40023800 	.word	0x40023800
 8001a5c:	40020000 	.word	0x40020000

08001a60 <HAL_UART_MspInit>:
 8001a60:	2300      	movs	r3, #0
 8001a62:	b5f0      	push	{r4, r5, r6, r7, lr}
 8001a64:	6801      	ldr	r1, [r0, #0]
 8001a66:	4a16      	ldr	r2, [pc, #88]	; (8001ac0 <HAL_UART_MspInit+0x60>)
 8001a68:	b089      	sub	sp, #36	; 0x24
 8001a6a:	4291      	cmp	r1, r2
 8001a6c:	e9cd 3303 	strd	r3, r3, [sp, #12]
 8001a70:	e9cd 3305 	strd	r3, r3, [sp, #20]
 8001a74:	9307      	str	r3, [sp, #28]
 8001a76:	d001      	beq.n	8001a7c <HAL_UART_MspInit+0x1c>
 8001a78:	b009      	add	sp, #36	; 0x24
 8001a7a:	bdf0      	pop	{r4, r5, r6, r7, pc}
 8001a7c:	2601      	movs	r6, #1
 8001a7e:	200c      	movs	r0, #12
 8001a80:	2702      	movs	r7, #2
 8001a82:	2503      	movs	r5, #3
 8001a84:	2407      	movs	r4, #7
 8001a86:	4b0f      	ldr	r3, [pc, #60]	; (8001ac4 <HAL_UART_MspInit+0x64>)
 8001a88:	eb0d 0100 	add.w	r1, sp, r0
 8001a8c:	6a5a      	ldr	r2, [r3, #36]	; 0x24
 8001a8e:	f442 3200 	orr.w	r2, r2, #131072	; 0x20000
 8001a92:	625a      	str	r2, [r3, #36]	; 0x24
 8001a94:	6a5a      	ldr	r2, [r3, #36]	; 0x24
 8001a96:	f402 3200 	and.w	r2, r2, #131072	; 0x20000
 8001a9a:	9201      	str	r2, [sp, #4]
 8001a9c:	9a01      	ldr	r2, [sp, #4]
 8001a9e:	69da      	ldr	r2, [r3, #28]
 8001aa0:	4332      	orrs	r2, r6
 8001aa2:	61da      	str	r2, [r3, #28]
 8001aa4:	69db      	ldr	r3, [r3, #28]
 8001aa6:	9003      	str	r0, [sp, #12]
 8001aa8:	4033      	ands	r3, r6
 8001aaa:	9302      	str	r3, [sp, #8]
 8001aac:	4806      	ldr	r0, [pc, #24]	; (8001ac8 <HAL_UART_MspInit+0x68>)
 8001aae:	9b02      	ldr	r3, [sp, #8]
 8001ab0:	e9cd 7604 	strd	r7, r6, [sp, #16]
 8001ab4:	e9cd 5406 	strd	r5, r4, [sp, #24]
 8001ab8:	f7fe fc1a 	bl	80002f0 <HAL_GPIO_Init>
 8001abc:	b009      	add	sp, #36	; 0x24
 8001abe:	bdf0      	pop	{r4, r5, r6, r7, pc}
 8001ac0:	40004400 	.word	0x40004400
 8001ac4:	40023800 	.word	0x40023800
 8001ac8:	40020000 	.word	0x40020000

08001acc <NMI_Handler>:
 8001acc:	4770      	bx	lr
 8001ace:	bf00      	nop

08001ad0 <HardFault_Handler>:
 8001ad0:	e7fe      	b.n	8001ad0 <HardFault_Handler>
 8001ad2:	bf00      	nop

08001ad4 <MemManage_Handler>:
 8001ad4:	e7fe      	b.n	8001ad4 <MemManage_Handler>
 8001ad6:	bf00      	nop

08001ad8 <BusFault_Handler>:
 8001ad8:	e7fe      	b.n	8001ad8 <BusFault_Handler>
 8001ada:	bf00      	nop

08001adc <UsageFault_Handler>:
 8001adc:	e7fe      	b.n	8001adc <UsageFault_Handler>
 8001ade:	bf00      	nop

08001ae0 <SVC_Handler>:
 8001ae0:	4770      	bx	lr
 8001ae2:	bf00      	nop

08001ae4 <DebugMon_Handler>:
 8001ae4:	4770      	bx	lr
 8001ae6:	bf00      	nop

08001ae8 <PendSV_Handler>:
 8001ae8:	4770      	bx	lr
 8001aea:	bf00      	nop

08001aec <SysTick_Handler>:
 8001aec:	f7fe bb80 	b.w	80001f0 <HAL_IncTick>

08001af0 <TIM2_IRQHandler>:
 8001af0:	4801      	ldr	r0, [pc, #4]	; (8001af8 <TIM2_IRQHandler+0x8>)
 8001af2:	f7ff bb77 	b.w	80011e4 <HAL_TIM_IRQHandler>
 8001af6:	bf00      	nop
 8001af8:	200000dc 	.word	0x200000dc

08001afc <TIM3_IRQHandler>:
 8001afc:	4801      	ldr	r0, [pc, #4]	; (8001b04 <TIM3_IRQHandler+0x8>)
 8001afe:	f7ff bb71 	b.w	80011e4 <HAL_TIM_IRQHandler>
 8001b02:	bf00      	nop
 8001b04:	200000a0 	.word	0x200000a0

08001b08 <EXTI15_10_IRQHandler>:
 8001b08:	b510      	push	{r4, lr}
 8001b0a:	f44f 5000 	mov.w	r0, #8192	; 0x2000
 8001b0e:	f7fe fced 	bl	80004ec <HAL_GPIO_EXTI_IRQHandler>
 8001b12:	b672      	cpsid	i
 8001b14:	4a0b      	ldr	r2, [pc, #44]	; (8001b44 <EXTI15_10_IRQHandler+0x3c>)
 8001b16:	4c0c      	ldr	r4, [pc, #48]	; (8001b48 <EXTI15_10_IRQHandler+0x40>)
 8001b18:	6953      	ldr	r3, [r2, #20]
 8001b1a:	2100      	movs	r1, #0
 8001b1c:	f443 5300 	orr.w	r3, r3, #8192	; 0x2000
 8001b20:	6153      	str	r3, [r2, #20]
 8001b22:	4620      	mov	r0, r4
 8001b24:	f7ff f98a 	bl	8000e3c <HAL_TIM_IC_Start_IT>
 8001b28:	4620      	mov	r0, r4
 8001b2a:	f7ff f91b 	bl	8000d64 <HAL_TIM_Base_Start_IT>
 8001b2e:	2201      	movs	r2, #1
 8001b30:	2120      	movs	r1, #32
 8001b32:	4806      	ldr	r0, [pc, #24]	; (8001b4c <EXTI15_10_IRQHandler+0x44>)
 8001b34:	f7fe fcd0 	bl	80004d8 <HAL_GPIO_WritePin>
 8001b38:	2201      	movs	r2, #1
 8001b3a:	4b05      	ldr	r3, [pc, #20]	; (8001b50 <EXTI15_10_IRQHandler+0x48>)
 8001b3c:	701a      	strb	r2, [r3, #0]
 8001b3e:	b662      	cpsie	i
 8001b40:	bd10      	pop	{r4, pc}
 8001b42:	bf00      	nop
 8001b44:	40010400 	.word	0x40010400
 8001b48:	200000dc 	.word	0x200000dc
 8001b4c:	40020000 	.word	0x40020000
 8001b50:	2000008d 	.word	0x2000008d

08001b54 <_read>:
 8001b54:	b570      	push	{r4, r5, r6, lr}
 8001b56:	1e16      	subs	r6, r2, #0
 8001b58:	dd07      	ble.n	8001b6a <_read+0x16>
 8001b5a:	460c      	mov	r4, r1
 8001b5c:	198d      	adds	r5, r1, r6
 8001b5e:	f7ff fdc1 	bl	80016e4 <__io_getchar>
 8001b62:	f804 0b01 	strb.w	r0, [r4], #1
 8001b66:	42a5      	cmp	r5, r4
 8001b68:	d1f9      	bne.n	8001b5e <_read+0xa>
 8001b6a:	4630      	mov	r0, r6
 8001b6c:	bd70      	pop	{r4, r5, r6, pc}
 8001b6e:	bf00      	nop

08001b70 <_write>:
 8001b70:	b570      	push	{r4, r5, r6, lr}
 8001b72:	1e16      	subs	r6, r2, #0
 8001b74:	dd07      	ble.n	8001b86 <_write+0x16>
 8001b76:	460c      	mov	r4, r1
 8001b78:	198d      	adds	r5, r1, r6
 8001b7a:	f814 0b01 	ldrb.w	r0, [r4], #1
 8001b7e:	f7ff fd9f 	bl	80016c0 <__io_putchar>
 8001b82:	42ac      	cmp	r4, r5
 8001b84:	d1f9      	bne.n	8001b7a <_write+0xa>
 8001b86:	4630      	mov	r0, r6
 8001b88:	bd70      	pop	{r4, r5, r6, pc}
 8001b8a:	bf00      	nop

08001b8c <_close>:
 8001b8c:	f04f 30ff 	mov.w	r0, #4294967295	; 0xffffffff
 8001b90:	4770      	bx	lr
 8001b92:	bf00      	nop

08001b94 <_fstat>:
 8001b94:	f44f 5300 	mov.w	r3, #8192	; 0x2000
 8001b98:	2000      	movs	r0, #0
 8001b9a:	604b      	str	r3, [r1, #4]
 8001b9c:	4770      	bx	lr
 8001b9e:	bf00      	nop

08001ba0 <_isatty>:
 8001ba0:	2001      	movs	r0, #1
 8001ba2:	4770      	bx	lr

08001ba4 <_lseek>:
 8001ba4:	2000      	movs	r0, #0
 8001ba6:	4770      	bx	lr

08001ba8 <_sbrk>:
 8001ba8:	4a0c      	ldr	r2, [pc, #48]	; (8001bdc <_sbrk+0x34>)
 8001baa:	b508      	push	{r3, lr}
 8001bac:	6813      	ldr	r3, [r2, #0]
 8001bae:	b133      	cbz	r3, 8001bbe <_sbrk+0x16>
 8001bb0:	4669      	mov	r1, sp
 8001bb2:	4418      	add	r0, r3
 8001bb4:	4288      	cmp	r0, r1
 8001bb6:	d809      	bhi.n	8001bcc <_sbrk+0x24>
 8001bb8:	6010      	str	r0, [r2, #0]
 8001bba:	4618      	mov	r0, r3
 8001bbc:	bd08      	pop	{r3, pc}
 8001bbe:	4908      	ldr	r1, [pc, #32]	; (8001be0 <_sbrk+0x38>)
 8001bc0:	460b      	mov	r3, r1
 8001bc2:	6011      	str	r1, [r2, #0]
 8001bc4:	4669      	mov	r1, sp
 8001bc6:	4418      	add	r0, r3
 8001bc8:	4288      	cmp	r0, r1
 8001bca:	d9f5      	bls.n	8001bb8 <_sbrk+0x10>
 8001bcc:	f000 f856 	bl	8001c7c <__errno>
 8001bd0:	220c      	movs	r2, #12
 8001bd2:	f04f 33ff 	mov.w	r3, #4294967295	; 0xffffffff
 8001bd6:	6002      	str	r2, [r0, #0]
 8001bd8:	4618      	mov	r0, r3
 8001bda:	bd08      	pop	{r3, pc}
 8001bdc:	20000090 	.word	0x20000090
 8001be0:	20000160 	.word	0x20000160

08001be4 <SystemInit>:
 8001be4:	b430      	push	{r4, r5}
 8001be6:	2500      	movs	r5, #0
 8001be8:	f04f 6400 	mov.w	r4, #134217728	; 0x8000000
 8001bec:	4b0d      	ldr	r3, [pc, #52]	; (8001c24 <SystemInit+0x40>)
 8001bee:	4a0e      	ldr	r2, [pc, #56]	; (8001c28 <SystemInit+0x44>)
 8001bf0:	6819      	ldr	r1, [r3, #0]
 8001bf2:	480e      	ldr	r0, [pc, #56]	; (8001c2c <SystemInit+0x48>)
 8001bf4:	f441 7180 	orr.w	r1, r1, #256	; 0x100
 8001bf8:	6019      	str	r1, [r3, #0]
 8001bfa:	6899      	ldr	r1, [r3, #8]
 8001bfc:	400a      	ands	r2, r1
 8001bfe:	609a      	str	r2, [r3, #8]
 8001c00:	681a      	ldr	r2, [r3, #0]
 8001c02:	f022 5288 	bic.w	r2, r2, #285212672	; 0x11000000
 8001c06:	f022 1201 	bic.w	r2, r2, #65537	; 0x10001
 8001c0a:	601a      	str	r2, [r3, #0]
 8001c0c:	681a      	ldr	r2, [r3, #0]
 8001c0e:	f422 2280 	bic.w	r2, r2, #262144	; 0x40000
 8001c12:	601a      	str	r2, [r3, #0]
 8001c14:	689a      	ldr	r2, [r3, #8]
 8001c16:	f422 027d 	bic.w	r2, r2, #16580608	; 0xfd0000
 8001c1a:	609a      	str	r2, [r3, #8]
 8001c1c:	60dd      	str	r5, [r3, #12]
 8001c1e:	6084      	str	r4, [r0, #8]
 8001c20:	bc30      	pop	{r4, r5}
 8001c22:	4770      	bx	lr
 8001c24:	40023800 	.word	0x40023800
 8001c28:	88ffc00c 	.word	0x88ffc00c
 8001c2c:	e000ed00 	.word	0xe000ed00

08001c30 <Reset_Handler>:
 8001c30:	2100      	movs	r1, #0
 8001c32:	e003      	b.n	8001c3c <LoopCopyDataInit>

08001c34 <CopyDataInit>:
 8001c34:	4b0b      	ldr	r3, [pc, #44]	; (8001c64 <LoopFillZerobss+0x14>)
 8001c36:	585b      	ldr	r3, [r3, r1]
 8001c38:	5043      	str	r3, [r0, r1]
 8001c3a:	3104      	adds	r1, #4

08001c3c <LoopCopyDataInit>:
 8001c3c:	480a      	ldr	r0, [pc, #40]	; (8001c68 <LoopFillZerobss+0x18>)
 8001c3e:	4b0b      	ldr	r3, [pc, #44]	; (8001c6c <LoopFillZerobss+0x1c>)
 8001c40:	1842      	adds	r2, r0, r1
 8001c42:	429a      	cmp	r2, r3
 8001c44:	d3f6      	bcc.n	8001c34 <CopyDataInit>
 8001c46:	4a0a      	ldr	r2, [pc, #40]	; (8001c70 <LoopFillZerobss+0x20>)
 8001c48:	e002      	b.n	8001c50 <LoopFillZerobss>

08001c4a <FillZerobss>:
 8001c4a:	2300      	movs	r3, #0
 8001c4c:	f842 3b04 	str.w	r3, [r2], #4

08001c50 <LoopFillZerobss>:
 8001c50:	4b08      	ldr	r3, [pc, #32]	; (8001c74 <LoopFillZerobss+0x24>)
 8001c52:	429a      	cmp	r2, r3
 8001c54:	d3f9      	bcc.n	8001c4a <FillZerobss>
 8001c56:	f7ff ffc5 	bl	8001be4 <SystemInit>
 8001c5a:	f000 f815 	bl	8001c88 <__libc_init_array>
 8001c5e:	f7ff fd87 	bl	8001770 <main>
 8001c62:	4770      	bx	lr
 8001c64:	08002bac 	.word	0x08002bac
 8001c68:	20000000 	.word	0x20000000
 8001c6c:	20000070 	.word	0x20000070
 8001c70:	20000070 	.word	0x20000070
 8001c74:	2000015c 	.word	0x2000015c

08001c78 <ADC1_IRQHandler>:
 8001c78:	e7fe      	b.n	8001c78 <ADC1_IRQHandler>
	...

08001c7c <__errno>:
 8001c7c:	4b01      	ldr	r3, [pc, #4]	; (8001c84 <__errno+0x8>)
 8001c7e:	6818      	ldr	r0, [r3, #0]
 8001c80:	4770      	bx	lr
 8001c82:	bf00      	nop
 8001c84:	2000000c 	.word	0x2000000c

08001c88 <__libc_init_array>:
 8001c88:	b570      	push	{r4, r5, r6, lr}
 8001c8a:	2500      	movs	r5, #0
 8001c8c:	4e0c      	ldr	r6, [pc, #48]	; (8001cc0 <__libc_init_array+0x38>)
 8001c8e:	4c0d      	ldr	r4, [pc, #52]	; (8001cc4 <__libc_init_array+0x3c>)
 8001c90:	1ba4      	subs	r4, r4, r6
 8001c92:	10a4      	asrs	r4, r4, #2
 8001c94:	42a5      	cmp	r5, r4
 8001c96:	d109      	bne.n	8001cac <__libc_init_array+0x24>
 8001c98:	f000 ff10 	bl	8002abc <_init>
 8001c9c:	2500      	movs	r5, #0
 8001c9e:	4e0a      	ldr	r6, [pc, #40]	; (8001cc8 <__libc_init_array+0x40>)
 8001ca0:	4c0a      	ldr	r4, [pc, #40]	; (8001ccc <__libc_init_array+0x44>)
 8001ca2:	1ba4      	subs	r4, r4, r6
 8001ca4:	10a4      	asrs	r4, r4, #2
 8001ca6:	42a5      	cmp	r5, r4
 8001ca8:	d105      	bne.n	8001cb6 <__libc_init_array+0x2e>
 8001caa:	bd70      	pop	{r4, r5, r6, pc}
 8001cac:	f856 3025 	ldr.w	r3, [r6, r5, lsl #2]
 8001cb0:	4798      	blx	r3
 8001cb2:	3501      	adds	r5, #1
 8001cb4:	e7ee      	b.n	8001c94 <__libc_init_array+0xc>
 8001cb6:	f856 3025 	ldr.w	r3, [r6, r5, lsl #2]
 8001cba:	4798      	blx	r3
 8001cbc:	3501      	adds	r5, #1
 8001cbe:	e7f2      	b.n	8001ca6 <__libc_init_array+0x1e>
 8001cc0:	08002ba4 	.word	0x08002ba4
 8001cc4:	08002ba4 	.word	0x08002ba4
 8001cc8:	08002ba4 	.word	0x08002ba4
 8001ccc:	08002ba8 	.word	0x08002ba8

08001cd0 <memset>:
 8001cd0:	4603      	mov	r3, r0
 8001cd2:	4402      	add	r2, r0
 8001cd4:	4293      	cmp	r3, r2
 8001cd6:	d100      	bne.n	8001cda <memset+0xa>
 8001cd8:	4770      	bx	lr
 8001cda:	f803 1b01 	strb.w	r1, [r3], #1
 8001cde:	e7f9      	b.n	8001cd4 <memset+0x4>

08001ce0 <iprintf>:
 8001ce0:	b40f      	push	{r0, r1, r2, r3}
 8001ce2:	4b0a      	ldr	r3, [pc, #40]	; (8001d0c <iprintf+0x2c>)
 8001ce4:	b513      	push	{r0, r1, r4, lr}
 8001ce6:	681c      	ldr	r4, [r3, #0]
 8001ce8:	b124      	cbz	r4, 8001cf4 <iprintf+0x14>
 8001cea:	69a3      	ldr	r3, [r4, #24]
 8001cec:	b913      	cbnz	r3, 8001cf4 <iprintf+0x14>
 8001cee:	4620      	mov	r0, r4
 8001cf0:	f000 f84e 	bl	8001d90 <__sinit>
 8001cf4:	ab05      	add	r3, sp, #20
 8001cf6:	9a04      	ldr	r2, [sp, #16]
 8001cf8:	68a1      	ldr	r1, [r4, #8]
 8001cfa:	4620      	mov	r0, r4
 8001cfc:	9301      	str	r3, [sp, #4]
 8001cfe:	f000 f953 	bl	8001fa8 <_vfiprintf_r>
 8001d02:	b002      	add	sp, #8
 8001d04:	e8bd 4010 	ldmia.w	sp!, {r4, lr}
 8001d08:	b004      	add	sp, #16
 8001d0a:	4770      	bx	lr
 8001d0c:	2000000c 	.word	0x2000000c

08001d10 <std>:
 8001d10:	2300      	movs	r3, #0
 8001d12:	b510      	push	{r4, lr}
 8001d14:	4604      	mov	r4, r0
 8001d16:	e9c0 3300 	strd	r3, r3, [r0]
 8001d1a:	6083      	str	r3, [r0, #8]
 8001d1c:	8181      	strh	r1, [r0, #12]
 8001d1e:	6643      	str	r3, [r0, #100]	; 0x64
 8001d20:	81c2      	strh	r2, [r0, #14]
 8001d22:	e9c0 3304 	strd	r3, r3, [r0, #16]
 8001d26:	6183      	str	r3, [r0, #24]
 8001d28:	4619      	mov	r1, r3
 8001d2a:	2208      	movs	r2, #8
 8001d2c:	305c      	adds	r0, #92	; 0x5c
 8001d2e:	f7ff ffcf 	bl	8001cd0 <memset>
 8001d32:	4b05      	ldr	r3, [pc, #20]	; (8001d48 <std+0x38>)
 8001d34:	6224      	str	r4, [r4, #32]
 8001d36:	6263      	str	r3, [r4, #36]	; 0x24
 8001d38:	4b04      	ldr	r3, [pc, #16]	; (8001d4c <std+0x3c>)
 8001d3a:	62a3      	str	r3, [r4, #40]	; 0x28
 8001d3c:	4b04      	ldr	r3, [pc, #16]	; (8001d50 <std+0x40>)
 8001d3e:	62e3      	str	r3, [r4, #44]	; 0x2c
 8001d40:	4b04      	ldr	r3, [pc, #16]	; (8001d54 <std+0x44>)
 8001d42:	6323      	str	r3, [r4, #48]	; 0x30
 8001d44:	bd10      	pop	{r4, pc}
 8001d46:	bf00      	nop
 8001d48:	08002505 	.word	0x08002505
 8001d4c:	08002527 	.word	0x08002527
 8001d50:	0800255f 	.word	0x0800255f
 8001d54:	08002583 	.word	0x08002583

08001d58 <_cleanup_r>:
 8001d58:	4901      	ldr	r1, [pc, #4]	; (8001d60 <_cleanup_r+0x8>)
 8001d5a:	f000 b885 	b.w	8001e68 <_fwalk_reent>
 8001d5e:	bf00      	nop
 8001d60:	0800285d 	.word	0x0800285d

08001d64 <__sfmoreglue>:
 8001d64:	b570      	push	{r4, r5, r6, lr}
 8001d66:	2568      	movs	r5, #104	; 0x68
 8001d68:	1e4a      	subs	r2, r1, #1
 8001d6a:	4355      	muls	r5, r2
 8001d6c:	460e      	mov	r6, r1
 8001d6e:	f105 0174 	add.w	r1, r5, #116	; 0x74
 8001d72:	f000 f897 	bl	8001ea4 <_malloc_r>
 8001d76:	4604      	mov	r4, r0
 8001d78:	b140      	cbz	r0, 8001d8c <__sfmoreglue+0x28>
 8001d7a:	2100      	movs	r1, #0
 8001d7c:	e9c0 1600 	strd	r1, r6, [r0]
 8001d80:	300c      	adds	r0, #12
 8001d82:	60a0      	str	r0, [r4, #8]
 8001d84:	f105 0268 	add.w	r2, r5, #104	; 0x68
 8001d88:	f7ff ffa2 	bl	8001cd0 <memset>
 8001d8c:	4620      	mov	r0, r4
 8001d8e:	bd70      	pop	{r4, r5, r6, pc}

08001d90 <__sinit>:
 8001d90:	6983      	ldr	r3, [r0, #24]
 8001d92:	b510      	push	{r4, lr}
 8001d94:	4604      	mov	r4, r0
 8001d96:	bb33      	cbnz	r3, 8001de6 <__sinit+0x56>
 8001d98:	e9c0 3312 	strd	r3, r3, [r0, #72]	; 0x48
 8001d9c:	6503      	str	r3, [r0, #80]	; 0x50
 8001d9e:	4b12      	ldr	r3, [pc, #72]	; (8001de8 <__sinit+0x58>)
 8001da0:	4a12      	ldr	r2, [pc, #72]	; (8001dec <__sinit+0x5c>)
 8001da2:	681b      	ldr	r3, [r3, #0]
 8001da4:	6282      	str	r2, [r0, #40]	; 0x28
 8001da6:	4298      	cmp	r0, r3
 8001da8:	bf04      	itt	eq
 8001daa:	2301      	moveq	r3, #1
 8001dac:	6183      	streq	r3, [r0, #24]
 8001dae:	f000 f81f 	bl	8001df0 <__sfp>
 8001db2:	6060      	str	r0, [r4, #4]
 8001db4:	4620      	mov	r0, r4
 8001db6:	f000 f81b 	bl	8001df0 <__sfp>
 8001dba:	60a0      	str	r0, [r4, #8]
 8001dbc:	4620      	mov	r0, r4
 8001dbe:	f000 f817 	bl	8001df0 <__sfp>
 8001dc2:	2200      	movs	r2, #0
 8001dc4:	60e0      	str	r0, [r4, #12]
 8001dc6:	2104      	movs	r1, #4
 8001dc8:	6860      	ldr	r0, [r4, #4]
 8001dca:	f7ff ffa1 	bl	8001d10 <std>
 8001dce:	2201      	movs	r2, #1
 8001dd0:	2109      	movs	r1, #9
 8001dd2:	68a0      	ldr	r0, [r4, #8]
 8001dd4:	f7ff ff9c 	bl	8001d10 <std>
 8001dd8:	2202      	movs	r2, #2
 8001dda:	2112      	movs	r1, #18
 8001ddc:	68e0      	ldr	r0, [r4, #12]
 8001dde:	f7ff ff97 	bl	8001d10 <std>
 8001de2:	2301      	movs	r3, #1
 8001de4:	61a3      	str	r3, [r4, #24]
 8001de6:	bd10      	pop	{r4, pc}
 8001de8:	08002b0c 	.word	0x08002b0c
 8001dec:	08001d59 	.word	0x08001d59

08001df0 <__sfp>:
 8001df0:	b5f8      	push	{r3, r4, r5, r6, r7, lr}
 8001df2:	4b1b      	ldr	r3, [pc, #108]	; (8001e60 <__sfp+0x70>)
 8001df4:	4607      	mov	r7, r0
 8001df6:	681e      	ldr	r6, [r3, #0]
 8001df8:	69b3      	ldr	r3, [r6, #24]
 8001dfa:	b913      	cbnz	r3, 8001e02 <__sfp+0x12>
 8001dfc:	4630      	mov	r0, r6
 8001dfe:	f7ff ffc7 	bl	8001d90 <__sinit>
 8001e02:	3648      	adds	r6, #72	; 0x48
 8001e04:	e9d6 3401 	ldrd	r3, r4, [r6, #4]
 8001e08:	3b01      	subs	r3, #1
 8001e0a:	d503      	bpl.n	8001e14 <__sfp+0x24>
 8001e0c:	6833      	ldr	r3, [r6, #0]
 8001e0e:	b133      	cbz	r3, 8001e1e <__sfp+0x2e>
 8001e10:	6836      	ldr	r6, [r6, #0]
 8001e12:	e7f7      	b.n	8001e04 <__sfp+0x14>
 8001e14:	f9b4 500c 	ldrsh.w	r5, [r4, #12]
 8001e18:	b16d      	cbz	r5, 8001e36 <__sfp+0x46>
 8001e1a:	3468      	adds	r4, #104	; 0x68
 8001e1c:	e7f4      	b.n	8001e08 <__sfp+0x18>
 8001e1e:	2104      	movs	r1, #4
 8001e20:	4638      	mov	r0, r7
 8001e22:	f7ff ff9f 	bl	8001d64 <__sfmoreglue>
 8001e26:	6030      	str	r0, [r6, #0]
 8001e28:	2800      	cmp	r0, #0
 8001e2a:	d1f1      	bne.n	8001e10 <__sfp+0x20>
 8001e2c:	230c      	movs	r3, #12
 8001e2e:	4604      	mov	r4, r0
 8001e30:	603b      	str	r3, [r7, #0]
 8001e32:	4620      	mov	r0, r4
 8001e34:	bdf8      	pop	{r3, r4, r5, r6, r7, pc}
 8001e36:	4b0b      	ldr	r3, [pc, #44]	; (8001e64 <__sfp+0x74>)
 8001e38:	6665      	str	r5, [r4, #100]	; 0x64
 8001e3a:	e9c4 5500 	strd	r5, r5, [r4]
 8001e3e:	60a5      	str	r5, [r4, #8]
 8001e40:	e9c4 3503 	strd	r3, r5, [r4, #12]
 8001e44:	e9c4 5505 	strd	r5, r5, [r4, #20]
 8001e48:	2208      	movs	r2, #8
 8001e4a:	4629      	mov	r1, r5
 8001e4c:	f104 005c 	add.w	r0, r4, #92	; 0x5c
 8001e50:	f7ff ff3e 	bl	8001cd0 <memset>
 8001e54:	e9c4 550d 	strd	r5, r5, [r4, #52]	; 0x34
 8001e58:	e9c4 5512 	strd	r5, r5, [r4, #72]	; 0x48
 8001e5c:	e7e9      	b.n	8001e32 <__sfp+0x42>
 8001e5e:	bf00      	nop
 8001e60:	08002b0c 	.word	0x08002b0c
 8001e64:	ffff0001 	.word	0xffff0001

08001e68 <_fwalk_reent>:
 8001e68:	e92d 43f8 	stmdb	sp!, {r3, r4, r5, r6, r7, r8, r9, lr}
 8001e6c:	4680      	mov	r8, r0
 8001e6e:	4689      	mov	r9, r1
 8001e70:	2600      	movs	r6, #0
 8001e72:	f100 0448 	add.w	r4, r0, #72	; 0x48
 8001e76:	b914      	cbnz	r4, 8001e7e <_fwalk_reent+0x16>
 8001e78:	4630      	mov	r0, r6
 8001e7a:	e8bd 83f8 	ldmia.w	sp!, {r3, r4, r5, r6, r7, r8, r9, pc}
 8001e7e:	e9d4 7501 	ldrd	r7, r5, [r4, #4]
 8001e82:	3f01      	subs	r7, #1
 8001e84:	d501      	bpl.n	8001e8a <_fwalk_reent+0x22>
 8001e86:	6824      	ldr	r4, [r4, #0]
 8001e88:	e7f5      	b.n	8001e76 <_fwalk_reent+0xe>
 8001e8a:	89ab      	ldrh	r3, [r5, #12]
 8001e8c:	2b01      	cmp	r3, #1
 8001e8e:	d907      	bls.n	8001ea0 <_fwalk_reent+0x38>
 8001e90:	f9b5 300e 	ldrsh.w	r3, [r5, #14]
 8001e94:	3301      	adds	r3, #1
 8001e96:	d003      	beq.n	8001ea0 <_fwalk_reent+0x38>
 8001e98:	4629      	mov	r1, r5
 8001e9a:	4640      	mov	r0, r8
 8001e9c:	47c8      	blx	r9
 8001e9e:	4306      	orrs	r6, r0
 8001ea0:	3568      	adds	r5, #104	; 0x68
 8001ea2:	e7ee      	b.n	8001e82 <_fwalk_reent+0x1a>

08001ea4 <_malloc_r>:
 8001ea4:	b570      	push	{r4, r5, r6, lr}
 8001ea6:	1ccd      	adds	r5, r1, #3
 8001ea8:	f025 0503 	bic.w	r5, r5, #3
 8001eac:	3508      	adds	r5, #8
 8001eae:	2d0c      	cmp	r5, #12
 8001eb0:	bf38      	it	cc
 8001eb2:	250c      	movcc	r5, #12
 8001eb4:	2d00      	cmp	r5, #0
 8001eb6:	4606      	mov	r6, r0
 8001eb8:	db01      	blt.n	8001ebe <_malloc_r+0x1a>
 8001eba:	42a9      	cmp	r1, r5
 8001ebc:	d903      	bls.n	8001ec6 <_malloc_r+0x22>
 8001ebe:	230c      	movs	r3, #12
 8001ec0:	6033      	str	r3, [r6, #0]
 8001ec2:	2000      	movs	r0, #0
 8001ec4:	bd70      	pop	{r4, r5, r6, pc}
 8001ec6:	f000 fd77 	bl	80029b8 <__malloc_lock>
 8001eca:	4a21      	ldr	r2, [pc, #132]	; (8001f50 <_malloc_r+0xac>)
 8001ecc:	6814      	ldr	r4, [r2, #0]
 8001ece:	4621      	mov	r1, r4
 8001ed0:	b991      	cbnz	r1, 8001ef8 <_malloc_r+0x54>
 8001ed2:	4c20      	ldr	r4, [pc, #128]	; (8001f54 <_malloc_r+0xb0>)
 8001ed4:	6823      	ldr	r3, [r4, #0]
 8001ed6:	b91b      	cbnz	r3, 8001ee0 <_malloc_r+0x3c>
 8001ed8:	4630      	mov	r0, r6
 8001eda:	f000 fb03 	bl	80024e4 <_sbrk_r>
 8001ede:	6020      	str	r0, [r4, #0]
 8001ee0:	4629      	mov	r1, r5
 8001ee2:	4630      	mov	r0, r6
 8001ee4:	f000 fafe 	bl	80024e4 <_sbrk_r>
 8001ee8:	1c43      	adds	r3, r0, #1
 8001eea:	d124      	bne.n	8001f36 <_malloc_r+0x92>
 8001eec:	230c      	movs	r3, #12
 8001eee:	4630      	mov	r0, r6
 8001ef0:	6033      	str	r3, [r6, #0]
 8001ef2:	f000 fd62 	bl	80029ba <__malloc_unlock>
 8001ef6:	e7e4      	b.n	8001ec2 <_malloc_r+0x1e>
 8001ef8:	680b      	ldr	r3, [r1, #0]
 8001efa:	1b5b      	subs	r3, r3, r5
 8001efc:	d418      	bmi.n	8001f30 <_malloc_r+0x8c>
 8001efe:	2b0b      	cmp	r3, #11
 8001f00:	d90f      	bls.n	8001f22 <_malloc_r+0x7e>
 8001f02:	600b      	str	r3, [r1, #0]
 8001f04:	18cc      	adds	r4, r1, r3
 8001f06:	50cd      	str	r5, [r1, r3]
 8001f08:	4630      	mov	r0, r6
 8001f0a:	f000 fd56 	bl	80029ba <__malloc_unlock>
 8001f0e:	f104 000b 	add.w	r0, r4, #11
 8001f12:	1d23      	adds	r3, r4, #4
 8001f14:	f020 0007 	bic.w	r0, r0, #7
 8001f18:	1ac3      	subs	r3, r0, r3
 8001f1a:	d0d3      	beq.n	8001ec4 <_malloc_r+0x20>
 8001f1c:	425a      	negs	r2, r3
 8001f1e:	50e2      	str	r2, [r4, r3]
 8001f20:	e7d0      	b.n	8001ec4 <_malloc_r+0x20>
 8001f22:	684b      	ldr	r3, [r1, #4]
 8001f24:	428c      	cmp	r4, r1
 8001f26:	bf16      	itet	ne
 8001f28:	6063      	strne	r3, [r4, #4]
 8001f2a:	6013      	streq	r3, [r2, #0]
 8001f2c:	460c      	movne	r4, r1
 8001f2e:	e7eb      	b.n	8001f08 <_malloc_r+0x64>
 8001f30:	460c      	mov	r4, r1
 8001f32:	6849      	ldr	r1, [r1, #4]
 8001f34:	e7cc      	b.n	8001ed0 <_malloc_r+0x2c>
 8001f36:	1cc4      	adds	r4, r0, #3
 8001f38:	f024 0403 	bic.w	r4, r4, #3
 8001f3c:	42a0      	cmp	r0, r4
 8001f3e:	d005      	beq.n	8001f4c <_malloc_r+0xa8>
 8001f40:	1a21      	subs	r1, r4, r0
 8001f42:	4630      	mov	r0, r6
 8001f44:	f000 face 	bl	80024e4 <_sbrk_r>
 8001f48:	3001      	adds	r0, #1
 8001f4a:	d0cf      	beq.n	8001eec <_malloc_r+0x48>
 8001f4c:	6025      	str	r5, [r4, #0]
 8001f4e:	e7db      	b.n	8001f08 <_malloc_r+0x64>
 8001f50:	20000094 	.word	0x20000094
 8001f54:	20000098 	.word	0x20000098

08001f58 <__sfputc_r>:
 8001f58:	6893      	ldr	r3, [r2, #8]
 8001f5a:	b410      	push	{r4}
 8001f5c:	3b01      	subs	r3, #1
 8001f5e:	2b00      	cmp	r3, #0
 8001f60:	6093      	str	r3, [r2, #8]
 8001f62:	da07      	bge.n	8001f74 <__sfputc_r+0x1c>
 8001f64:	6994      	ldr	r4, [r2, #24]
 8001f66:	42a3      	cmp	r3, r4
 8001f68:	db01      	blt.n	8001f6e <__sfputc_r+0x16>
 8001f6a:	290a      	cmp	r1, #10
 8001f6c:	d102      	bne.n	8001f74 <__sfputc_r+0x1c>
 8001f6e:	bc10      	pop	{r4}
 8001f70:	f000 bb0c 	b.w	800258c <__swbuf_r>
 8001f74:	6813      	ldr	r3, [r2, #0]
 8001f76:	1c58      	adds	r0, r3, #1
 8001f78:	6010      	str	r0, [r2, #0]
 8001f7a:	7019      	strb	r1, [r3, #0]
 8001f7c:	4608      	mov	r0, r1
 8001f7e:	bc10      	pop	{r4}
 8001f80:	4770      	bx	lr

08001f82 <__sfputs_r>:
 8001f82:	b5f8      	push	{r3, r4, r5, r6, r7, lr}
 8001f84:	4606      	mov	r6, r0
 8001f86:	460f      	mov	r7, r1
 8001f88:	4614      	mov	r4, r2
 8001f8a:	18d5      	adds	r5, r2, r3
 8001f8c:	42ac      	cmp	r4, r5
 8001f8e:	d101      	bne.n	8001f94 <__sfputs_r+0x12>
 8001f90:	2000      	movs	r0, #0
 8001f92:	e007      	b.n	8001fa4 <__sfputs_r+0x22>
 8001f94:	463a      	mov	r2, r7
 8001f96:	f814 1b01 	ldrb.w	r1, [r4], #1
 8001f9a:	4630      	mov	r0, r6
 8001f9c:	f7ff ffdc 	bl	8001f58 <__sfputc_r>
 8001fa0:	1c43      	adds	r3, r0, #1
 8001fa2:	d1f3      	bne.n	8001f8c <__sfputs_r+0xa>
 8001fa4:	bdf8      	pop	{r3, r4, r5, r6, r7, pc}
	...

08001fa8 <_vfiprintf_r>:
 8001fa8:	e92d 4ff0 	stmdb	sp!, {r4, r5, r6, r7, r8, r9, sl, fp, lr}
 8001fac:	460c      	mov	r4, r1
 8001fae:	b09d      	sub	sp, #116	; 0x74
 8001fb0:	4617      	mov	r7, r2
 8001fb2:	461d      	mov	r5, r3
 8001fb4:	4606      	mov	r6, r0
 8001fb6:	b118      	cbz	r0, 8001fc0 <_vfiprintf_r+0x18>
 8001fb8:	6983      	ldr	r3, [r0, #24]
 8001fba:	b90b      	cbnz	r3, 8001fc0 <_vfiprintf_r+0x18>
 8001fbc:	f7ff fee8 	bl	8001d90 <__sinit>
 8001fc0:	4b7c      	ldr	r3, [pc, #496]	; (80021b4 <_vfiprintf_r+0x20c>)
 8001fc2:	429c      	cmp	r4, r3
 8001fc4:	d158      	bne.n	8002078 <_vfiprintf_r+0xd0>
 8001fc6:	6874      	ldr	r4, [r6, #4]
 8001fc8:	89a3      	ldrh	r3, [r4, #12]
 8001fca:	0718      	lsls	r0, r3, #28
 8001fcc:	d55e      	bpl.n	800208c <_vfiprintf_r+0xe4>
 8001fce:	6923      	ldr	r3, [r4, #16]
 8001fd0:	2b00      	cmp	r3, #0
 8001fd2:	d05b      	beq.n	800208c <_vfiprintf_r+0xe4>
 8001fd4:	2300      	movs	r3, #0
 8001fd6:	9309      	str	r3, [sp, #36]	; 0x24
 8001fd8:	2320      	movs	r3, #32
 8001fda:	f88d 3029 	strb.w	r3, [sp, #41]	; 0x29
 8001fde:	2330      	movs	r3, #48	; 0x30
 8001fe0:	f04f 0b01 	mov.w	fp, #1
 8001fe4:	f88d 302a 	strb.w	r3, [sp, #42]	; 0x2a
 8001fe8:	9503      	str	r5, [sp, #12]
 8001fea:	46b8      	mov	r8, r7
 8001fec:	4645      	mov	r5, r8
 8001fee:	f815 3b01 	ldrb.w	r3, [r5], #1
 8001ff2:	b10b      	cbz	r3, 8001ff8 <_vfiprintf_r+0x50>
 8001ff4:	2b25      	cmp	r3, #37	; 0x25
 8001ff6:	d154      	bne.n	80020a2 <_vfiprintf_r+0xfa>
 8001ff8:	ebb8 0a07 	subs.w	sl, r8, r7
 8001ffc:	d00b      	beq.n	8002016 <_vfiprintf_r+0x6e>
 8001ffe:	4653      	mov	r3, sl
 8002000:	463a      	mov	r2, r7
 8002002:	4621      	mov	r1, r4
 8002004:	4630      	mov	r0, r6
 8002006:	f7ff ffbc 	bl	8001f82 <__sfputs_r>
 800200a:	3001      	adds	r0, #1
 800200c:	f000 80c2 	beq.w	8002194 <_vfiprintf_r+0x1ec>
 8002010:	9b09      	ldr	r3, [sp, #36]	; 0x24
 8002012:	4453      	add	r3, sl
 8002014:	9309      	str	r3, [sp, #36]	; 0x24
 8002016:	f898 3000 	ldrb.w	r3, [r8]
 800201a:	2b00      	cmp	r3, #0
 800201c:	f000 80ba 	beq.w	8002194 <_vfiprintf_r+0x1ec>
 8002020:	2300      	movs	r3, #0
 8002022:	f04f 32ff 	mov.w	r2, #4294967295	; 0xffffffff
 8002026:	e9cd 2305 	strd	r2, r3, [sp, #20]
 800202a:	9304      	str	r3, [sp, #16]
 800202c:	9307      	str	r3, [sp, #28]
 800202e:	f88d 3053 	strb.w	r3, [sp, #83]	; 0x53
 8002032:	931a      	str	r3, [sp, #104]	; 0x68
 8002034:	46a8      	mov	r8, r5
 8002036:	2205      	movs	r2, #5
 8002038:	f818 1b01 	ldrb.w	r1, [r8], #1
 800203c:	485e      	ldr	r0, [pc, #376]	; (80021b8 <_vfiprintf_r+0x210>)
 800203e:	f000 fcad 	bl	800299c <memchr>
 8002042:	9b04      	ldr	r3, [sp, #16]
 8002044:	bb78      	cbnz	r0, 80020a6 <_vfiprintf_r+0xfe>
 8002046:	06d9      	lsls	r1, r3, #27
 8002048:	bf44      	itt	mi
 800204a:	2220      	movmi	r2, #32
 800204c:	f88d 2053 	strbmi.w	r2, [sp, #83]	; 0x53
 8002050:	071a      	lsls	r2, r3, #28
 8002052:	bf44      	itt	mi
 8002054:	222b      	movmi	r2, #43	; 0x2b
 8002056:	f88d 2053 	strbmi.w	r2, [sp, #83]	; 0x53
 800205a:	782a      	ldrb	r2, [r5, #0]
 800205c:	2a2a      	cmp	r2, #42	; 0x2a
 800205e:	d02a      	beq.n	80020b6 <_vfiprintf_r+0x10e>
 8002060:	46a8      	mov	r8, r5
 8002062:	2000      	movs	r0, #0
 8002064:	250a      	movs	r5, #10
 8002066:	9a07      	ldr	r2, [sp, #28]
 8002068:	4641      	mov	r1, r8
 800206a:	f811 3b01 	ldrb.w	r3, [r1], #1
 800206e:	3b30      	subs	r3, #48	; 0x30
 8002070:	2b09      	cmp	r3, #9
 8002072:	d969      	bls.n	8002148 <_vfiprintf_r+0x1a0>
 8002074:	b360      	cbz	r0, 80020d0 <_vfiprintf_r+0x128>
 8002076:	e024      	b.n	80020c2 <_vfiprintf_r+0x11a>
 8002078:	4b50      	ldr	r3, [pc, #320]	; (80021bc <_vfiprintf_r+0x214>)
 800207a:	429c      	cmp	r4, r3
 800207c:	d101      	bne.n	8002082 <_vfiprintf_r+0xda>
 800207e:	68b4      	ldr	r4, [r6, #8]
 8002080:	e7a2      	b.n	8001fc8 <_vfiprintf_r+0x20>
 8002082:	4b4f      	ldr	r3, [pc, #316]	; (80021c0 <_vfiprintf_r+0x218>)
 8002084:	429c      	cmp	r4, r3
 8002086:	bf08      	it	eq
 8002088:	68f4      	ldreq	r4, [r6, #12]
 800208a:	e79d      	b.n	8001fc8 <_vfiprintf_r+0x20>
 800208c:	4621      	mov	r1, r4
 800208e:	4630      	mov	r0, r6
 8002090:	f000 fae0 	bl	8002654 <__swsetup_r>
 8002094:	2800      	cmp	r0, #0
 8002096:	d09d      	beq.n	8001fd4 <_vfiprintf_r+0x2c>
 8002098:	f04f 30ff 	mov.w	r0, #4294967295	; 0xffffffff
 800209c:	b01d      	add	sp, #116	; 0x74
 800209e:	e8bd 8ff0 	ldmia.w	sp!, {r4, r5, r6, r7, r8, r9, sl, fp, pc}
 80020a2:	46a8      	mov	r8, r5
 80020a4:	e7a2      	b.n	8001fec <_vfiprintf_r+0x44>
 80020a6:	4a44      	ldr	r2, [pc, #272]	; (80021b8 <_vfiprintf_r+0x210>)
 80020a8:	4645      	mov	r5, r8
 80020aa:	1a80      	subs	r0, r0, r2
 80020ac:	fa0b f000 	lsl.w	r0, fp, r0
 80020b0:	4318      	orrs	r0, r3
 80020b2:	9004      	str	r0, [sp, #16]
 80020b4:	e7be      	b.n	8002034 <_vfiprintf_r+0x8c>
 80020b6:	9a03      	ldr	r2, [sp, #12]
 80020b8:	1d11      	adds	r1, r2, #4
 80020ba:	6812      	ldr	r2, [r2, #0]
 80020bc:	9103      	str	r1, [sp, #12]
 80020be:	2a00      	cmp	r2, #0
 80020c0:	db01      	blt.n	80020c6 <_vfiprintf_r+0x11e>
 80020c2:	9207      	str	r2, [sp, #28]
 80020c4:	e004      	b.n	80020d0 <_vfiprintf_r+0x128>
 80020c6:	4252      	negs	r2, r2
 80020c8:	f043 0302 	orr.w	r3, r3, #2
 80020cc:	9207      	str	r2, [sp, #28]
 80020ce:	9304      	str	r3, [sp, #16]
 80020d0:	f898 3000 	ldrb.w	r3, [r8]
 80020d4:	2b2e      	cmp	r3, #46	; 0x2e
 80020d6:	d10e      	bne.n	80020f6 <_vfiprintf_r+0x14e>
 80020d8:	f898 3001 	ldrb.w	r3, [r8, #1]
 80020dc:	2b2a      	cmp	r3, #42	; 0x2a
 80020de:	d138      	bne.n	8002152 <_vfiprintf_r+0x1aa>
 80020e0:	9b03      	ldr	r3, [sp, #12]
 80020e2:	f108 0802 	add.w	r8, r8, #2
 80020e6:	1d1a      	adds	r2, r3, #4
 80020e8:	681b      	ldr	r3, [r3, #0]
 80020ea:	9203      	str	r2, [sp, #12]
 80020ec:	2b00      	cmp	r3, #0
 80020ee:	bfb8      	it	lt
 80020f0:	f04f 33ff 	movlt.w	r3, #4294967295	; 0xffffffff
 80020f4:	9305      	str	r3, [sp, #20]
 80020f6:	4d33      	ldr	r5, [pc, #204]	; (80021c4 <_vfiprintf_r+0x21c>)
 80020f8:	2203      	movs	r2, #3
 80020fa:	f898 1000 	ldrb.w	r1, [r8]
 80020fe:	4628      	mov	r0, r5
 8002100:	f000 fc4c 	bl	800299c <memchr>
 8002104:	b140      	cbz	r0, 8002118 <_vfiprintf_r+0x170>
 8002106:	2340      	movs	r3, #64	; 0x40
 8002108:	1b40      	subs	r0, r0, r5
 800210a:	fa03 f000 	lsl.w	r0, r3, r0
 800210e:	9b04      	ldr	r3, [sp, #16]
 8002110:	f108 0801 	add.w	r8, r8, #1
 8002114:	4303      	orrs	r3, r0
 8002116:	9304      	str	r3, [sp, #16]
 8002118:	f898 1000 	ldrb.w	r1, [r8]
 800211c:	2206      	movs	r2, #6
 800211e:	482a      	ldr	r0, [pc, #168]	; (80021c8 <_vfiprintf_r+0x220>)
 8002120:	f108 0701 	add.w	r7, r8, #1
 8002124:	f88d 1028 	strb.w	r1, [sp, #40]	; 0x28
 8002128:	f000 fc38 	bl	800299c <memchr>
 800212c:	2800      	cmp	r0, #0
 800212e:	d037      	beq.n	80021a0 <_vfiprintf_r+0x1f8>
 8002130:	4b26      	ldr	r3, [pc, #152]	; (80021cc <_vfiprintf_r+0x224>)
 8002132:	bb1b      	cbnz	r3, 800217c <_vfiprintf_r+0x1d4>
 8002134:	9b03      	ldr	r3, [sp, #12]
 8002136:	3307      	adds	r3, #7
 8002138:	f023 0307 	bic.w	r3, r3, #7
 800213c:	3308      	adds	r3, #8
 800213e:	9303      	str	r3, [sp, #12]
 8002140:	9b09      	ldr	r3, [sp, #36]	; 0x24
 8002142:	444b      	add	r3, r9
 8002144:	9309      	str	r3, [sp, #36]	; 0x24
 8002146:	e750      	b.n	8001fea <_vfiprintf_r+0x42>
 8002148:	fb05 3202 	mla	r2, r5, r2, r3
 800214c:	2001      	movs	r0, #1
 800214e:	4688      	mov	r8, r1
 8002150:	e78a      	b.n	8002068 <_vfiprintf_r+0xc0>
 8002152:	2300      	movs	r3, #0
 8002154:	250a      	movs	r5, #10
 8002156:	4619      	mov	r1, r3
 8002158:	f108 0801 	add.w	r8, r8, #1
 800215c:	9305      	str	r3, [sp, #20]
 800215e:	4640      	mov	r0, r8
 8002160:	f810 2b01 	ldrb.w	r2, [r0], #1
 8002164:	3a30      	subs	r2, #48	; 0x30
 8002166:	2a09      	cmp	r2, #9
 8002168:	d903      	bls.n	8002172 <_vfiprintf_r+0x1ca>
 800216a:	2b00      	cmp	r3, #0
 800216c:	d0c3      	beq.n	80020f6 <_vfiprintf_r+0x14e>
 800216e:	9105      	str	r1, [sp, #20]
 8002170:	e7c1      	b.n	80020f6 <_vfiprintf_r+0x14e>
 8002172:	fb05 2101 	mla	r1, r5, r1, r2
 8002176:	2301      	movs	r3, #1
 8002178:	4680      	mov	r8, r0
 800217a:	e7f0      	b.n	800215e <_vfiprintf_r+0x1b6>
 800217c:	ab03      	add	r3, sp, #12
 800217e:	9300      	str	r3, [sp, #0]
 8002180:	4622      	mov	r2, r4
 8002182:	4b13      	ldr	r3, [pc, #76]	; (80021d0 <_vfiprintf_r+0x228>)
 8002184:	a904      	add	r1, sp, #16
 8002186:	4630      	mov	r0, r6
 8002188:	f3af 8000 	nop.w
 800218c:	f1b0 3fff 	cmp.w	r0, #4294967295	; 0xffffffff
 8002190:	4681      	mov	r9, r0
 8002192:	d1d5      	bne.n	8002140 <_vfiprintf_r+0x198>
 8002194:	89a3      	ldrh	r3, [r4, #12]
 8002196:	065b      	lsls	r3, r3, #25
 8002198:	f53f af7e 	bmi.w	8002098 <_vfiprintf_r+0xf0>
 800219c:	9809      	ldr	r0, [sp, #36]	; 0x24
 800219e:	e77d      	b.n	800209c <_vfiprintf_r+0xf4>
 80021a0:	ab03      	add	r3, sp, #12
 80021a2:	9300      	str	r3, [sp, #0]
 80021a4:	4622      	mov	r2, r4
 80021a6:	4b0a      	ldr	r3, [pc, #40]	; (80021d0 <_vfiprintf_r+0x228>)
 80021a8:	a904      	add	r1, sp, #16
 80021aa:	4630      	mov	r0, r6
 80021ac:	f000 f888 	bl	80022c0 <_printf_i>
 80021b0:	e7ec      	b.n	800218c <_vfiprintf_r+0x1e4>
 80021b2:	bf00      	nop
 80021b4:	08002b30 	.word	0x08002b30
 80021b8:	08002b70 	.word	0x08002b70
 80021bc:	08002b50 	.word	0x08002b50
 80021c0:	08002b10 	.word	0x08002b10
 80021c4:	08002b76 	.word	0x08002b76
 80021c8:	08002b7a 	.word	0x08002b7a
 80021cc:	00000000 	.word	0x00000000
 80021d0:	08001f83 	.word	0x08001f83

080021d4 <_printf_common>:
 80021d4:	e92d 47f0 	stmdb	sp!, {r4, r5, r6, r7, r8, r9, sl, lr}
 80021d8:	4691      	mov	r9, r2
 80021da:	461f      	mov	r7, r3
 80021dc:	688a      	ldr	r2, [r1, #8]
 80021de:	690b      	ldr	r3, [r1, #16]
 80021e0:	4606      	mov	r6, r0
 80021e2:	4293      	cmp	r3, r2
 80021e4:	bfb8      	it	lt
 80021e6:	4613      	movlt	r3, r2
 80021e8:	f8c9 3000 	str.w	r3, [r9]
 80021ec:	f891 2043 	ldrb.w	r2, [r1, #67]	; 0x43
 80021f0:	460c      	mov	r4, r1
 80021f2:	f8dd 8020 	ldr.w	r8, [sp, #32]
 80021f6:	b112      	cbz	r2, 80021fe <_printf_common+0x2a>
 80021f8:	3301      	adds	r3, #1
 80021fa:	f8c9 3000 	str.w	r3, [r9]
 80021fe:	6823      	ldr	r3, [r4, #0]
 8002200:	0699      	lsls	r1, r3, #26
 8002202:	bf42      	ittt	mi
 8002204:	f8d9 3000 	ldrmi.w	r3, [r9]
 8002208:	3302      	addmi	r3, #2
 800220a:	f8c9 3000 	strmi.w	r3, [r9]
 800220e:	6825      	ldr	r5, [r4, #0]
 8002210:	f015 0506 	ands.w	r5, r5, #6
 8002214:	d107      	bne.n	8002226 <_printf_common+0x52>
 8002216:	f104 0a19 	add.w	sl, r4, #25
 800221a:	68e3      	ldr	r3, [r4, #12]
 800221c:	f8d9 2000 	ldr.w	r2, [r9]
 8002220:	1a9b      	subs	r3, r3, r2
 8002222:	42ab      	cmp	r3, r5
 8002224:	dc29      	bgt.n	800227a <_printf_common+0xa6>
 8002226:	f894 3043 	ldrb.w	r3, [r4, #67]	; 0x43
 800222a:	6822      	ldr	r2, [r4, #0]
 800222c:	3300      	adds	r3, #0
 800222e:	bf18      	it	ne
 8002230:	2301      	movne	r3, #1
 8002232:	0692      	lsls	r2, r2, #26
 8002234:	d42e      	bmi.n	8002294 <_printf_common+0xc0>
 8002236:	f104 0243 	add.w	r2, r4, #67	; 0x43
 800223a:	4639      	mov	r1, r7
 800223c:	4630      	mov	r0, r6
 800223e:	47c0      	blx	r8
 8002240:	3001      	adds	r0, #1
 8002242:	d021      	beq.n	8002288 <_printf_common+0xb4>
 8002244:	6823      	ldr	r3, [r4, #0]
 8002246:	68e5      	ldr	r5, [r4, #12]
 8002248:	f003 0306 	and.w	r3, r3, #6
 800224c:	2b04      	cmp	r3, #4
 800224e:	bf18      	it	ne
 8002250:	2500      	movne	r5, #0
 8002252:	f8d9 2000 	ldr.w	r2, [r9]
 8002256:	f04f 0900 	mov.w	r9, #0
 800225a:	bf08      	it	eq
 800225c:	1aad      	subeq	r5, r5, r2
 800225e:	68a3      	ldr	r3, [r4, #8]
 8002260:	6922      	ldr	r2, [r4, #16]
 8002262:	bf08      	it	eq
 8002264:	ea25 75e5 	biceq.w	r5, r5, r5, asr #31
 8002268:	4293      	cmp	r3, r2
 800226a:	bfc4      	itt	gt
 800226c:	1a9b      	subgt	r3, r3, r2
 800226e:	18ed      	addgt	r5, r5, r3
 8002270:	341a      	adds	r4, #26
 8002272:	454d      	cmp	r5, r9
 8002274:	d11a      	bne.n	80022ac <_printf_common+0xd8>
 8002276:	2000      	movs	r0, #0
 8002278:	e008      	b.n	800228c <_printf_common+0xb8>
 800227a:	2301      	movs	r3, #1
 800227c:	4652      	mov	r2, sl
 800227e:	4639      	mov	r1, r7
 8002280:	4630      	mov	r0, r6
 8002282:	47c0      	blx	r8
 8002284:	3001      	adds	r0, #1
 8002286:	d103      	bne.n	8002290 <_printf_common+0xbc>
 8002288:	f04f 30ff 	mov.w	r0, #4294967295	; 0xffffffff
 800228c:	e8bd 87f0 	ldmia.w	sp!, {r4, r5, r6, r7, r8, r9, sl, pc}
 8002290:	3501      	adds	r5, #1
 8002292:	e7c2      	b.n	800221a <_printf_common+0x46>
 8002294:	2030      	movs	r0, #48	; 0x30
 8002296:	18e1      	adds	r1, r4, r3
 8002298:	f881 0043 	strb.w	r0, [r1, #67]	; 0x43
 800229c:	1c5a      	adds	r2, r3, #1
 800229e:	f894 1045 	ldrb.w	r1, [r4, #69]	; 0x45
 80022a2:	4422      	add	r2, r4
 80022a4:	3302      	adds	r3, #2
 80022a6:	f882 1043 	strb.w	r1, [r2, #67]	; 0x43
 80022aa:	e7c4      	b.n	8002236 <_printf_common+0x62>
 80022ac:	2301      	movs	r3, #1
 80022ae:	4622      	mov	r2, r4
 80022b0:	4639      	mov	r1, r7
 80022b2:	4630      	mov	r0, r6
 80022b4:	47c0      	blx	r8
 80022b6:	3001      	adds	r0, #1
 80022b8:	d0e6      	beq.n	8002288 <_printf_common+0xb4>
 80022ba:	f109 0901 	add.w	r9, r9, #1
 80022be:	e7d8      	b.n	8002272 <_printf_common+0x9e>

080022c0 <_printf_i>:
 80022c0:	e92d 43f0 	stmdb	sp!, {r4, r5, r6, r7, r8, r9, lr}
 80022c4:	f101 0c43 	add.w	ip, r1, #67	; 0x43
 80022c8:	460c      	mov	r4, r1
 80022ca:	7e09      	ldrb	r1, [r1, #24]
 80022cc:	b085      	sub	sp, #20
 80022ce:	296e      	cmp	r1, #110	; 0x6e
 80022d0:	4617      	mov	r7, r2
 80022d2:	4606      	mov	r6, r0
 80022d4:	4698      	mov	r8, r3
 80022d6:	9a0c      	ldr	r2, [sp, #48]	; 0x30
 80022d8:	f000 80b3 	beq.w	8002442 <_printf_i+0x182>
 80022dc:	d822      	bhi.n	8002324 <_printf_i+0x64>
 80022de:	2963      	cmp	r1, #99	; 0x63
 80022e0:	d036      	beq.n	8002350 <_printf_i+0x90>
 80022e2:	d80a      	bhi.n	80022fa <_printf_i+0x3a>
 80022e4:	2900      	cmp	r1, #0
 80022e6:	f000 80b9 	beq.w	800245c <_printf_i+0x19c>
 80022ea:	2958      	cmp	r1, #88	; 0x58
 80022ec:	f000 8083 	beq.w	80023f6 <_printf_i+0x136>
 80022f0:	f104 0542 	add.w	r5, r4, #66	; 0x42
 80022f4:	f884 1042 	strb.w	r1, [r4, #66]	; 0x42
 80022f8:	e032      	b.n	8002360 <_printf_i+0xa0>
 80022fa:	2964      	cmp	r1, #100	; 0x64
 80022fc:	d001      	beq.n	8002302 <_printf_i+0x42>
 80022fe:	2969      	cmp	r1, #105	; 0x69
 8002300:	d1f6      	bne.n	80022f0 <_printf_i+0x30>
 8002302:	6820      	ldr	r0, [r4, #0]
 8002304:	6813      	ldr	r3, [r2, #0]
 8002306:	0605      	lsls	r5, r0, #24
 8002308:	f103 0104 	add.w	r1, r3, #4
 800230c:	d52a      	bpl.n	8002364 <_printf_i+0xa4>
 800230e:	681b      	ldr	r3, [r3, #0]
 8002310:	6011      	str	r1, [r2, #0]
 8002312:	2b00      	cmp	r3, #0
 8002314:	da03      	bge.n	800231e <_printf_i+0x5e>
 8002316:	222d      	movs	r2, #45	; 0x2d
 8002318:	425b      	negs	r3, r3
 800231a:	f884 2043 	strb.w	r2, [r4, #67]	; 0x43
 800231e:	486f      	ldr	r0, [pc, #444]	; (80024dc <_printf_i+0x21c>)
 8002320:	220a      	movs	r2, #10
 8002322:	e039      	b.n	8002398 <_printf_i+0xd8>
 8002324:	2973      	cmp	r1, #115	; 0x73
 8002326:	f000 809d 	beq.w	8002464 <_printf_i+0x1a4>
 800232a:	d808      	bhi.n	800233e <_printf_i+0x7e>
 800232c:	296f      	cmp	r1, #111	; 0x6f
 800232e:	d020      	beq.n	8002372 <_printf_i+0xb2>
 8002330:	2970      	cmp	r1, #112	; 0x70
 8002332:	d1dd      	bne.n	80022f0 <_printf_i+0x30>
 8002334:	6823      	ldr	r3, [r4, #0]
 8002336:	f043 0320 	orr.w	r3, r3, #32
 800233a:	6023      	str	r3, [r4, #0]
 800233c:	e003      	b.n	8002346 <_printf_i+0x86>
 800233e:	2975      	cmp	r1, #117	; 0x75
 8002340:	d017      	beq.n	8002372 <_printf_i+0xb2>
 8002342:	2978      	cmp	r1, #120	; 0x78
 8002344:	d1d4      	bne.n	80022f0 <_printf_i+0x30>
 8002346:	2378      	movs	r3, #120	; 0x78
 8002348:	4865      	ldr	r0, [pc, #404]	; (80024e0 <_printf_i+0x220>)
 800234a:	f884 3045 	strb.w	r3, [r4, #69]	; 0x45
 800234e:	e055      	b.n	80023fc <_printf_i+0x13c>
 8002350:	6813      	ldr	r3, [r2, #0]
 8002352:	f104 0542 	add.w	r5, r4, #66	; 0x42
 8002356:	1d19      	adds	r1, r3, #4
 8002358:	681b      	ldr	r3, [r3, #0]
 800235a:	6011      	str	r1, [r2, #0]
 800235c:	f884 3042 	strb.w	r3, [r4, #66]	; 0x42
 8002360:	2301      	movs	r3, #1
 8002362:	e08c      	b.n	800247e <_printf_i+0x1be>
 8002364:	681b      	ldr	r3, [r3, #0]
 8002366:	f010 0f40 	tst.w	r0, #64	; 0x40
 800236a:	6011      	str	r1, [r2, #0]
 800236c:	bf18      	it	ne
 800236e:	b21b      	sxthne	r3, r3
 8002370:	e7cf      	b.n	8002312 <_printf_i+0x52>
 8002372:	6813      	ldr	r3, [r2, #0]
 8002374:	6825      	ldr	r5, [r4, #0]
 8002376:	1d18      	adds	r0, r3, #4
 8002378:	6010      	str	r0, [r2, #0]
 800237a:	0628      	lsls	r0, r5, #24
 800237c:	d501      	bpl.n	8002382 <_printf_i+0xc2>
 800237e:	681b      	ldr	r3, [r3, #0]
 8002380:	e002      	b.n	8002388 <_printf_i+0xc8>
 8002382:	0668      	lsls	r0, r5, #25
 8002384:	d5fb      	bpl.n	800237e <_printf_i+0xbe>
 8002386:	881b      	ldrh	r3, [r3, #0]
 8002388:	296f      	cmp	r1, #111	; 0x6f
 800238a:	bf14      	ite	ne
 800238c:	220a      	movne	r2, #10
 800238e:	2208      	moveq	r2, #8
 8002390:	4852      	ldr	r0, [pc, #328]	; (80024dc <_printf_i+0x21c>)
 8002392:	2100      	movs	r1, #0
 8002394:	f884 1043 	strb.w	r1, [r4, #67]	; 0x43
 8002398:	6865      	ldr	r5, [r4, #4]
 800239a:	2d00      	cmp	r5, #0
 800239c:	60a5      	str	r5, [r4, #8]
 800239e:	f2c0 8095 	blt.w	80024cc <_printf_i+0x20c>
 80023a2:	6821      	ldr	r1, [r4, #0]
 80023a4:	f021 0104 	bic.w	r1, r1, #4
 80023a8:	6021      	str	r1, [r4, #0]
 80023aa:	2b00      	cmp	r3, #0
 80023ac:	d13d      	bne.n	800242a <_printf_i+0x16a>
 80023ae:	2d00      	cmp	r5, #0
 80023b0:	f040 808e 	bne.w	80024d0 <_printf_i+0x210>
 80023b4:	4665      	mov	r5, ip
 80023b6:	2a08      	cmp	r2, #8
 80023b8:	d10b      	bne.n	80023d2 <_printf_i+0x112>
 80023ba:	6823      	ldr	r3, [r4, #0]
 80023bc:	07db      	lsls	r3, r3, #31
 80023be:	d508      	bpl.n	80023d2 <_printf_i+0x112>
 80023c0:	6923      	ldr	r3, [r4, #16]
 80023c2:	6862      	ldr	r2, [r4, #4]
 80023c4:	429a      	cmp	r2, r3
 80023c6:	bfde      	ittt	le
 80023c8:	2330      	movle	r3, #48	; 0x30
 80023ca:	f805 3c01 	strble.w	r3, [r5, #-1]
 80023ce:	f105 35ff 	addle.w	r5, r5, #4294967295	; 0xffffffff
 80023d2:	ebac 0305 	sub.w	r3, ip, r5
 80023d6:	6123      	str	r3, [r4, #16]
 80023d8:	f8cd 8000 	str.w	r8, [sp]
 80023dc:	463b      	mov	r3, r7
 80023de:	aa03      	add	r2, sp, #12
 80023e0:	4621      	mov	r1, r4
 80023e2:	4630      	mov	r0, r6
 80023e4:	f7ff fef6 	bl	80021d4 <_printf_common>
 80023e8:	3001      	adds	r0, #1
 80023ea:	d14d      	bne.n	8002488 <_printf_i+0x1c8>
 80023ec:	f04f 30ff 	mov.w	r0, #4294967295	; 0xffffffff
 80023f0:	b005      	add	sp, #20
 80023f2:	e8bd 83f0 	ldmia.w	sp!, {r4, r5, r6, r7, r8, r9, pc}
 80023f6:	4839      	ldr	r0, [pc, #228]	; (80024dc <_printf_i+0x21c>)
 80023f8:	f884 1045 	strb.w	r1, [r4, #69]	; 0x45
 80023fc:	6813      	ldr	r3, [r2, #0]
 80023fe:	6821      	ldr	r1, [r4, #0]
 8002400:	1d1d      	adds	r5, r3, #4
 8002402:	681b      	ldr	r3, [r3, #0]
 8002404:	6015      	str	r5, [r2, #0]
 8002406:	060a      	lsls	r2, r1, #24
 8002408:	d50b      	bpl.n	8002422 <_printf_i+0x162>
 800240a:	07ca      	lsls	r2, r1, #31
 800240c:	bf44      	itt	mi
 800240e:	f041 0120 	orrmi.w	r1, r1, #32
 8002412:	6021      	strmi	r1, [r4, #0]
 8002414:	b91b      	cbnz	r3, 800241e <_printf_i+0x15e>
 8002416:	6822      	ldr	r2, [r4, #0]
 8002418:	f022 0220 	bic.w	r2, r2, #32
 800241c:	6022      	str	r2, [r4, #0]
 800241e:	2210      	movs	r2, #16
 8002420:	e7b7      	b.n	8002392 <_printf_i+0xd2>
 8002422:	064d      	lsls	r5, r1, #25
 8002424:	bf48      	it	mi
 8002426:	b29b      	uxthmi	r3, r3
 8002428:	e7ef      	b.n	800240a <_printf_i+0x14a>
 800242a:	4665      	mov	r5, ip
 800242c:	fbb3 f1f2 	udiv	r1, r3, r2
 8002430:	fb02 3311 	mls	r3, r2, r1, r3
 8002434:	5cc3      	ldrb	r3, [r0, r3]
 8002436:	f805 3d01 	strb.w	r3, [r5, #-1]!
 800243a:	460b      	mov	r3, r1
 800243c:	2900      	cmp	r1, #0
 800243e:	d1f5      	bne.n	800242c <_printf_i+0x16c>
 8002440:	e7b9      	b.n	80023b6 <_printf_i+0xf6>
 8002442:	6813      	ldr	r3, [r2, #0]
 8002444:	6825      	ldr	r5, [r4, #0]
 8002446:	1d18      	adds	r0, r3, #4
 8002448:	6961      	ldr	r1, [r4, #20]
 800244a:	6010      	str	r0, [r2, #0]
 800244c:	0628      	lsls	r0, r5, #24
 800244e:	681b      	ldr	r3, [r3, #0]
 8002450:	d501      	bpl.n	8002456 <_printf_i+0x196>
 8002452:	6019      	str	r1, [r3, #0]
 8002454:	e002      	b.n	800245c <_printf_i+0x19c>
 8002456:	066a      	lsls	r2, r5, #25
 8002458:	d5fb      	bpl.n	8002452 <_printf_i+0x192>
 800245a:	8019      	strh	r1, [r3, #0]
 800245c:	2300      	movs	r3, #0
 800245e:	4665      	mov	r5, ip
 8002460:	6123      	str	r3, [r4, #16]
 8002462:	e7b9      	b.n	80023d8 <_printf_i+0x118>
 8002464:	6813      	ldr	r3, [r2, #0]
 8002466:	1d19      	adds	r1, r3, #4
 8002468:	6011      	str	r1, [r2, #0]
 800246a:	681d      	ldr	r5, [r3, #0]
 800246c:	6862      	ldr	r2, [r4, #4]
 800246e:	2100      	movs	r1, #0
 8002470:	4628      	mov	r0, r5
 8002472:	f000 fa93 	bl	800299c <memchr>
 8002476:	b108      	cbz	r0, 800247c <_printf_i+0x1bc>
 8002478:	1b40      	subs	r0, r0, r5
 800247a:	6060      	str	r0, [r4, #4]
 800247c:	6863      	ldr	r3, [r4, #4]
 800247e:	6123      	str	r3, [r4, #16]
 8002480:	2300      	movs	r3, #0
 8002482:	f884 3043 	strb.w	r3, [r4, #67]	; 0x43
 8002486:	e7a7      	b.n	80023d8 <_printf_i+0x118>
 8002488:	6923      	ldr	r3, [r4, #16]
 800248a:	462a      	mov	r2, r5
 800248c:	4639      	mov	r1, r7
 800248e:	4630      	mov	r0, r6
 8002490:	47c0      	blx	r8
 8002492:	3001      	adds	r0, #1
 8002494:	d0aa      	beq.n	80023ec <_printf_i+0x12c>
 8002496:	6823      	ldr	r3, [r4, #0]
 8002498:	079b      	lsls	r3, r3, #30
 800249a:	d413      	bmi.n	80024c4 <_printf_i+0x204>
 800249c:	68e0      	ldr	r0, [r4, #12]
 800249e:	9b03      	ldr	r3, [sp, #12]
 80024a0:	4298      	cmp	r0, r3
 80024a2:	bfb8      	it	lt
 80024a4:	4618      	movlt	r0, r3
 80024a6:	e7a3      	b.n	80023f0 <_printf_i+0x130>
 80024a8:	2301      	movs	r3, #1
 80024aa:	464a      	mov	r2, r9
 80024ac:	4639      	mov	r1, r7
 80024ae:	4630      	mov	r0, r6
 80024b0:	47c0      	blx	r8
 80024b2:	3001      	adds	r0, #1
 80024b4:	d09a      	beq.n	80023ec <_printf_i+0x12c>
 80024b6:	3501      	adds	r5, #1
 80024b8:	68e3      	ldr	r3, [r4, #12]
 80024ba:	9a03      	ldr	r2, [sp, #12]
 80024bc:	1a9b      	subs	r3, r3, r2
 80024be:	42ab      	cmp	r3, r5
 80024c0:	dcf2      	bgt.n	80024a8 <_printf_i+0x1e8>
 80024c2:	e7eb      	b.n	800249c <_printf_i+0x1dc>
 80024c4:	2500      	movs	r5, #0
 80024c6:	f104 0919 	add.w	r9, r4, #25
 80024ca:	e7f5      	b.n	80024b8 <_printf_i+0x1f8>
 80024cc:	2b00      	cmp	r3, #0
 80024ce:	d1ac      	bne.n	800242a <_printf_i+0x16a>
 80024d0:	7803      	ldrb	r3, [r0, #0]
 80024d2:	f104 0542 	add.w	r5, r4, #66	; 0x42
 80024d6:	f884 3042 	strb.w	r3, [r4, #66]	; 0x42
 80024da:	e76c      	b.n	80023b6 <_printf_i+0xf6>
 80024dc:	08002b81 	.word	0x08002b81
 80024e0:	08002b92 	.word	0x08002b92

080024e4 <_sbrk_r>:
 80024e4:	b538      	push	{r3, r4, r5, lr}
 80024e6:	2300      	movs	r3, #0
 80024e8:	4c05      	ldr	r4, [pc, #20]	; (8002500 <_sbrk_r+0x1c>)
 80024ea:	4605      	mov	r5, r0
 80024ec:	4608      	mov	r0, r1
 80024ee:	6023      	str	r3, [r4, #0]
 80024f0:	f7ff fb5a 	bl	8001ba8 <_sbrk>
 80024f4:	1c43      	adds	r3, r0, #1
 80024f6:	d102      	bne.n	80024fe <_sbrk_r+0x1a>
 80024f8:	6823      	ldr	r3, [r4, #0]
 80024fa:	b103      	cbz	r3, 80024fe <_sbrk_r+0x1a>
 80024fc:	602b      	str	r3, [r5, #0]
 80024fe:	bd38      	pop	{r3, r4, r5, pc}
 8002500:	20000158 	.word	0x20000158

08002504 <__sread>:
 8002504:	b510      	push	{r4, lr}
 8002506:	460c      	mov	r4, r1
 8002508:	f9b1 100e 	ldrsh.w	r1, [r1, #14]
 800250c:	f000 faa2 	bl	8002a54 <_read_r>
 8002510:	2800      	cmp	r0, #0
 8002512:	bfab      	itete	ge
 8002514:	6d63      	ldrge	r3, [r4, #84]	; 0x54
 8002516:	89a3      	ldrhlt	r3, [r4, #12]
 8002518:	181b      	addge	r3, r3, r0
 800251a:	f423 5380 	biclt.w	r3, r3, #4096	; 0x1000
 800251e:	bfac      	ite	ge
 8002520:	6563      	strge	r3, [r4, #84]	; 0x54
 8002522:	81a3      	strhlt	r3, [r4, #12]
 8002524:	bd10      	pop	{r4, pc}

08002526 <__swrite>:
 8002526:	e92d 41f0 	stmdb	sp!, {r4, r5, r6, r7, r8, lr}
 800252a:	461f      	mov	r7, r3
 800252c:	898b      	ldrh	r3, [r1, #12]
 800252e:	4605      	mov	r5, r0
 8002530:	05db      	lsls	r3, r3, #23
 8002532:	460c      	mov	r4, r1
 8002534:	4616      	mov	r6, r2
 8002536:	d505      	bpl.n	8002544 <__swrite+0x1e>
 8002538:	2302      	movs	r3, #2
 800253a:	2200      	movs	r2, #0
 800253c:	f9b1 100e 	ldrsh.w	r1, [r1, #14]
 8002540:	f000 f9b6 	bl	80028b0 <_lseek_r>
 8002544:	89a3      	ldrh	r3, [r4, #12]
 8002546:	4632      	mov	r2, r6
 8002548:	f423 5380 	bic.w	r3, r3, #4096	; 0x1000
 800254c:	81a3      	strh	r3, [r4, #12]
 800254e:	f9b4 100e 	ldrsh.w	r1, [r4, #14]
 8002552:	463b      	mov	r3, r7
 8002554:	4628      	mov	r0, r5
 8002556:	e8bd 41f0 	ldmia.w	sp!, {r4, r5, r6, r7, r8, lr}
 800255a:	f000 b869 	b.w	8002630 <_write_r>

0800255e <__sseek>:
 800255e:	b510      	push	{r4, lr}
 8002560:	460c      	mov	r4, r1
 8002562:	f9b1 100e 	ldrsh.w	r1, [r1, #14]
 8002566:	f000 f9a3 	bl	80028b0 <_lseek_r>
 800256a:	1c43      	adds	r3, r0, #1
 800256c:	89a3      	ldrh	r3, [r4, #12]
 800256e:	bf15      	itete	ne
 8002570:	6560      	strne	r0, [r4, #84]	; 0x54
 8002572:	f423 5380 	biceq.w	r3, r3, #4096	; 0x1000
 8002576:	f443 5380 	orrne.w	r3, r3, #4096	; 0x1000
 800257a:	81a3      	strheq	r3, [r4, #12]
 800257c:	bf18      	it	ne
 800257e:	81a3      	strhne	r3, [r4, #12]
 8002580:	bd10      	pop	{r4, pc}

08002582 <__sclose>:
 8002582:	f9b1 100e 	ldrsh.w	r1, [r1, #14]
 8002586:	f000 b8d3 	b.w	8002730 <_close_r>
	...

0800258c <__swbuf_r>:
 800258c:	b5f8      	push	{r3, r4, r5, r6, r7, lr}
 800258e:	460e      	mov	r6, r1
 8002590:	4614      	mov	r4, r2
 8002592:	4605      	mov	r5, r0
 8002594:	b118      	cbz	r0, 800259e <__swbuf_r+0x12>
 8002596:	6983      	ldr	r3, [r0, #24]
 8002598:	b90b      	cbnz	r3, 800259e <__swbuf_r+0x12>
 800259a:	f7ff fbf9 	bl	8001d90 <__sinit>
 800259e:	4b21      	ldr	r3, [pc, #132]	; (8002624 <__swbuf_r+0x98>)
 80025a0:	429c      	cmp	r4, r3
 80025a2:	d12a      	bne.n	80025fa <__swbuf_r+0x6e>
 80025a4:	686c      	ldr	r4, [r5, #4]
 80025a6:	69a3      	ldr	r3, [r4, #24]
 80025a8:	60a3      	str	r3, [r4, #8]
 80025aa:	89a3      	ldrh	r3, [r4, #12]
 80025ac:	071a      	lsls	r2, r3, #28
 80025ae:	d52e      	bpl.n	800260e <__swbuf_r+0x82>
 80025b0:	6923      	ldr	r3, [r4, #16]
 80025b2:	b363      	cbz	r3, 800260e <__swbuf_r+0x82>
 80025b4:	6923      	ldr	r3, [r4, #16]
 80025b6:	6820      	ldr	r0, [r4, #0]
 80025b8:	b2f6      	uxtb	r6, r6
 80025ba:	1ac0      	subs	r0, r0, r3
 80025bc:	6963      	ldr	r3, [r4, #20]
 80025be:	4637      	mov	r7, r6
 80025c0:	4283      	cmp	r3, r0
 80025c2:	dc04      	bgt.n	80025ce <__swbuf_r+0x42>
 80025c4:	4621      	mov	r1, r4
 80025c6:	4628      	mov	r0, r5
 80025c8:	f000 f948 	bl	800285c <_fflush_r>
 80025cc:	bb28      	cbnz	r0, 800261a <__swbuf_r+0x8e>
 80025ce:	68a3      	ldr	r3, [r4, #8]
 80025d0:	3001      	adds	r0, #1
 80025d2:	3b01      	subs	r3, #1
 80025d4:	60a3      	str	r3, [r4, #8]
 80025d6:	6823      	ldr	r3, [r4, #0]
 80025d8:	1c5a      	adds	r2, r3, #1
 80025da:	6022      	str	r2, [r4, #0]
 80025dc:	701e      	strb	r6, [r3, #0]
 80025de:	6963      	ldr	r3, [r4, #20]
 80025e0:	4283      	cmp	r3, r0
 80025e2:	d004      	beq.n	80025ee <__swbuf_r+0x62>
 80025e4:	89a3      	ldrh	r3, [r4, #12]
 80025e6:	07db      	lsls	r3, r3, #31
 80025e8:	d519      	bpl.n	800261e <__swbuf_r+0x92>
 80025ea:	2e0a      	cmp	r6, #10
 80025ec:	d117      	bne.n	800261e <__swbuf_r+0x92>
 80025ee:	4621      	mov	r1, r4
 80025f0:	4628      	mov	r0, r5
 80025f2:	f000 f933 	bl	800285c <_fflush_r>
 80025f6:	b190      	cbz	r0, 800261e <__swbuf_r+0x92>
 80025f8:	e00f      	b.n	800261a <__swbuf_r+0x8e>
 80025fa:	4b0b      	ldr	r3, [pc, #44]	; (8002628 <__swbuf_r+0x9c>)
 80025fc:	429c      	cmp	r4, r3
 80025fe:	d101      	bne.n	8002604 <__swbuf_r+0x78>
 8002600:	68ac      	ldr	r4, [r5, #8]
 8002602:	e7d0      	b.n	80025a6 <__swbuf_r+0x1a>
 8002604:	4b09      	ldr	r3, [pc, #36]	; (800262c <__swbuf_r+0xa0>)
 8002606:	429c      	cmp	r4, r3
 8002608:	bf08      	it	eq
 800260a:	68ec      	ldreq	r4, [r5, #12]
 800260c:	e7cb      	b.n	80025a6 <__swbuf_r+0x1a>
 800260e:	4621      	mov	r1, r4
 8002610:	4628      	mov	r0, r5
 8002612:	f000 f81f 	bl	8002654 <__swsetup_r>
 8002616:	2800      	cmp	r0, #0
 8002618:	d0cc      	beq.n	80025b4 <__swbuf_r+0x28>
 800261a:	f04f 37ff 	mov.w	r7, #4294967295	; 0xffffffff
 800261e:	4638      	mov	r0, r7
 8002620:	bdf8      	pop	{r3, r4, r5, r6, r7, pc}
 8002622:	bf00      	nop
 8002624:	08002b30 	.word	0x08002b30
 8002628:	08002b50 	.word	0x08002b50
 800262c:	08002b10 	.word	0x08002b10

08002630 <_write_r>:
 8002630:	b538      	push	{r3, r4, r5, lr}
 8002632:	4605      	mov	r5, r0
 8002634:	4608      	mov	r0, r1
 8002636:	4611      	mov	r1, r2
 8002638:	2200      	movs	r2, #0
 800263a:	4c05      	ldr	r4, [pc, #20]	; (8002650 <_write_r+0x20>)
 800263c:	6022      	str	r2, [r4, #0]
 800263e:	461a      	mov	r2, r3
 8002640:	f7ff fa96 	bl	8001b70 <_write>
 8002644:	1c43      	adds	r3, r0, #1
 8002646:	d102      	bne.n	800264e <_write_r+0x1e>
 8002648:	6823      	ldr	r3, [r4, #0]
 800264a:	b103      	cbz	r3, 800264e <_write_r+0x1e>
 800264c:	602b      	str	r3, [r5, #0]
 800264e:	bd38      	pop	{r3, r4, r5, pc}
 8002650:	20000158 	.word	0x20000158

08002654 <__swsetup_r>:
 8002654:	4b32      	ldr	r3, [pc, #200]	; (8002720 <__swsetup_r+0xcc>)
 8002656:	b570      	push	{r4, r5, r6, lr}
 8002658:	681d      	ldr	r5, [r3, #0]
 800265a:	4606      	mov	r6, r0
 800265c:	460c      	mov	r4, r1
 800265e:	b125      	cbz	r5, 800266a <__swsetup_r+0x16>
 8002660:	69ab      	ldr	r3, [r5, #24]
 8002662:	b913      	cbnz	r3, 800266a <__swsetup_r+0x16>
 8002664:	4628      	mov	r0, r5
 8002666:	f7ff fb93 	bl	8001d90 <__sinit>
 800266a:	4b2e      	ldr	r3, [pc, #184]	; (8002724 <__swsetup_r+0xd0>)
 800266c:	429c      	cmp	r4, r3
 800266e:	d10f      	bne.n	8002690 <__swsetup_r+0x3c>
 8002670:	686c      	ldr	r4, [r5, #4]
 8002672:	f9b4 300c 	ldrsh.w	r3, [r4, #12]
 8002676:	b29a      	uxth	r2, r3
 8002678:	0715      	lsls	r5, r2, #28
 800267a:	d42c      	bmi.n	80026d6 <__swsetup_r+0x82>
 800267c:	06d0      	lsls	r0, r2, #27
 800267e:	d411      	bmi.n	80026a4 <__swsetup_r+0x50>
 8002680:	2209      	movs	r2, #9
 8002682:	6032      	str	r2, [r6, #0]
 8002684:	f043 0340 	orr.w	r3, r3, #64	; 0x40
 8002688:	81a3      	strh	r3, [r4, #12]
 800268a:	f04f 30ff 	mov.w	r0, #4294967295	; 0xffffffff
 800268e:	e03e      	b.n	800270e <__swsetup_r+0xba>
 8002690:	4b25      	ldr	r3, [pc, #148]	; (8002728 <__swsetup_r+0xd4>)
 8002692:	429c      	cmp	r4, r3
 8002694:	d101      	bne.n	800269a <__swsetup_r+0x46>
 8002696:	68ac      	ldr	r4, [r5, #8]
 8002698:	e7eb      	b.n	8002672 <__swsetup_r+0x1e>
 800269a:	4b24      	ldr	r3, [pc, #144]	; (800272c <__swsetup_r+0xd8>)
 800269c:	429c      	cmp	r4, r3
 800269e:	bf08      	it	eq
 80026a0:	68ec      	ldreq	r4, [r5, #12]
 80026a2:	e7e6      	b.n	8002672 <__swsetup_r+0x1e>
 80026a4:	0751      	lsls	r1, r2, #29
 80026a6:	d512      	bpl.n	80026ce <__swsetup_r+0x7a>
 80026a8:	6b61      	ldr	r1, [r4, #52]	; 0x34
 80026aa:	b141      	cbz	r1, 80026be <__swsetup_r+0x6a>
 80026ac:	f104 0344 	add.w	r3, r4, #68	; 0x44
 80026b0:	4299      	cmp	r1, r3
 80026b2:	d002      	beq.n	80026ba <__swsetup_r+0x66>
 80026b4:	4630      	mov	r0, r6
 80026b6:	f000 f981 	bl	80029bc <_free_r>
 80026ba:	2300      	movs	r3, #0
 80026bc:	6363      	str	r3, [r4, #52]	; 0x34
 80026be:	89a3      	ldrh	r3, [r4, #12]
 80026c0:	f023 0324 	bic.w	r3, r3, #36	; 0x24
 80026c4:	81a3      	strh	r3, [r4, #12]
 80026c6:	2300      	movs	r3, #0
 80026c8:	6063      	str	r3, [r4, #4]
 80026ca:	6923      	ldr	r3, [r4, #16]
 80026cc:	6023      	str	r3, [r4, #0]
 80026ce:	89a3      	ldrh	r3, [r4, #12]
 80026d0:	f043 0308 	orr.w	r3, r3, #8
 80026d4:	81a3      	strh	r3, [r4, #12]
 80026d6:	6923      	ldr	r3, [r4, #16]
 80026d8:	b94b      	cbnz	r3, 80026ee <__swsetup_r+0x9a>
 80026da:	89a3      	ldrh	r3, [r4, #12]
 80026dc:	f403 7320 	and.w	r3, r3, #640	; 0x280
 80026e0:	f5b3 7f00 	cmp.w	r3, #512	; 0x200
 80026e4:	d003      	beq.n	80026ee <__swsetup_r+0x9a>
 80026e6:	4621      	mov	r1, r4
 80026e8:	4630      	mov	r0, r6
 80026ea:	f000 f917 	bl	800291c <__smakebuf_r>
 80026ee:	89a2      	ldrh	r2, [r4, #12]
 80026f0:	f012 0301 	ands.w	r3, r2, #1
 80026f4:	d00c      	beq.n	8002710 <__swsetup_r+0xbc>
 80026f6:	2300      	movs	r3, #0
 80026f8:	60a3      	str	r3, [r4, #8]
 80026fa:	6963      	ldr	r3, [r4, #20]
 80026fc:	425b      	negs	r3, r3
 80026fe:	61a3      	str	r3, [r4, #24]
 8002700:	6923      	ldr	r3, [r4, #16]
 8002702:	b953      	cbnz	r3, 800271a <__swsetup_r+0xc6>
 8002704:	f9b4 300c 	ldrsh.w	r3, [r4, #12]
 8002708:	f013 0080 	ands.w	r0, r3, #128	; 0x80
 800270c:	d1ba      	bne.n	8002684 <__swsetup_r+0x30>
 800270e:	bd70      	pop	{r4, r5, r6, pc}
 8002710:	0792      	lsls	r2, r2, #30
 8002712:	bf58      	it	pl
 8002714:	6963      	ldrpl	r3, [r4, #20]
 8002716:	60a3      	str	r3, [r4, #8]
 8002718:	e7f2      	b.n	8002700 <__swsetup_r+0xac>
 800271a:	2000      	movs	r0, #0
 800271c:	e7f7      	b.n	800270e <__swsetup_r+0xba>
 800271e:	bf00      	nop
 8002720:	2000000c 	.word	0x2000000c
 8002724:	08002b30 	.word	0x08002b30
 8002728:	08002b50 	.word	0x08002b50
 800272c:	08002b10 	.word	0x08002b10

08002730 <_close_r>:
 8002730:	b538      	push	{r3, r4, r5, lr}
 8002732:	2300      	movs	r3, #0
 8002734:	4c05      	ldr	r4, [pc, #20]	; (800274c <_close_r+0x1c>)
 8002736:	4605      	mov	r5, r0
 8002738:	4608      	mov	r0, r1
 800273a:	6023      	str	r3, [r4, #0]
 800273c:	f7ff fa26 	bl	8001b8c <_close>
 8002740:	1c43      	adds	r3, r0, #1
 8002742:	d102      	bne.n	800274a <_close_r+0x1a>
 8002744:	6823      	ldr	r3, [r4, #0]
 8002746:	b103      	cbz	r3, 800274a <_close_r+0x1a>
 8002748:	602b      	str	r3, [r5, #0]
 800274a:	bd38      	pop	{r3, r4, r5, pc}
 800274c:	20000158 	.word	0x20000158

08002750 <__sflush_r>:
 8002750:	898a      	ldrh	r2, [r1, #12]
 8002752:	e92d 41f0 	stmdb	sp!, {r4, r5, r6, r7, r8, lr}
 8002756:	4605      	mov	r5, r0
 8002758:	0710      	lsls	r0, r2, #28
 800275a:	460c      	mov	r4, r1
 800275c:	d458      	bmi.n	8002810 <__sflush_r+0xc0>
 800275e:	684b      	ldr	r3, [r1, #4]
 8002760:	2b00      	cmp	r3, #0
 8002762:	dc05      	bgt.n	8002770 <__sflush_r+0x20>
 8002764:	6c0b      	ldr	r3, [r1, #64]	; 0x40
 8002766:	2b00      	cmp	r3, #0
 8002768:	dc02      	bgt.n	8002770 <__sflush_r+0x20>
 800276a:	2000      	movs	r0, #0
 800276c:	e8bd 81f0 	ldmia.w	sp!, {r4, r5, r6, r7, r8, pc}
 8002770:	6ae6      	ldr	r6, [r4, #44]	; 0x2c
 8002772:	2e00      	cmp	r6, #0
 8002774:	d0f9      	beq.n	800276a <__sflush_r+0x1a>
 8002776:	2300      	movs	r3, #0
 8002778:	f412 5280 	ands.w	r2, r2, #4096	; 0x1000
 800277c:	682f      	ldr	r7, [r5, #0]
 800277e:	6a21      	ldr	r1, [r4, #32]
 8002780:	602b      	str	r3, [r5, #0]
 8002782:	d032      	beq.n	80027ea <__sflush_r+0x9a>
 8002784:	6d60      	ldr	r0, [r4, #84]	; 0x54
 8002786:	89a3      	ldrh	r3, [r4, #12]
 8002788:	075a      	lsls	r2, r3, #29
 800278a:	d505      	bpl.n	8002798 <__sflush_r+0x48>
 800278c:	6863      	ldr	r3, [r4, #4]
 800278e:	1ac0      	subs	r0, r0, r3
 8002790:	6b63      	ldr	r3, [r4, #52]	; 0x34
 8002792:	b10b      	cbz	r3, 8002798 <__sflush_r+0x48>
 8002794:	6c23      	ldr	r3, [r4, #64]	; 0x40
 8002796:	1ac0      	subs	r0, r0, r3
 8002798:	2300      	movs	r3, #0
 800279a:	4602      	mov	r2, r0
 800279c:	6ae6      	ldr	r6, [r4, #44]	; 0x2c
 800279e:	6a21      	ldr	r1, [r4, #32]
 80027a0:	4628      	mov	r0, r5
 80027a2:	47b0      	blx	r6
 80027a4:	1c43      	adds	r3, r0, #1
 80027a6:	89a3      	ldrh	r3, [r4, #12]
 80027a8:	d106      	bne.n	80027b8 <__sflush_r+0x68>
 80027aa:	6829      	ldr	r1, [r5, #0]
 80027ac:	291d      	cmp	r1, #29
 80027ae:	d848      	bhi.n	8002842 <__sflush_r+0xf2>
 80027b0:	4a29      	ldr	r2, [pc, #164]	; (8002858 <__sflush_r+0x108>)
 80027b2:	40ca      	lsrs	r2, r1
 80027b4:	07d6      	lsls	r6, r2, #31
 80027b6:	d544      	bpl.n	8002842 <__sflush_r+0xf2>
 80027b8:	2200      	movs	r2, #0
 80027ba:	6062      	str	r2, [r4, #4]
 80027bc:	6922      	ldr	r2, [r4, #16]
 80027be:	04d9      	lsls	r1, r3, #19
 80027c0:	6022      	str	r2, [r4, #0]
 80027c2:	d504      	bpl.n	80027ce <__sflush_r+0x7e>
 80027c4:	1c42      	adds	r2, r0, #1
 80027c6:	d101      	bne.n	80027cc <__sflush_r+0x7c>
 80027c8:	682b      	ldr	r3, [r5, #0]
 80027ca:	b903      	cbnz	r3, 80027ce <__sflush_r+0x7e>
 80027cc:	6560      	str	r0, [r4, #84]	; 0x54
 80027ce:	6b61      	ldr	r1, [r4, #52]	; 0x34
 80027d0:	602f      	str	r7, [r5, #0]
 80027d2:	2900      	cmp	r1, #0
 80027d4:	d0c9      	beq.n	800276a <__sflush_r+0x1a>
 80027d6:	f104 0344 	add.w	r3, r4, #68	; 0x44
 80027da:	4299      	cmp	r1, r3
 80027dc:	d002      	beq.n	80027e4 <__sflush_r+0x94>
 80027de:	4628      	mov	r0, r5
 80027e0:	f000 f8ec 	bl	80029bc <_free_r>
 80027e4:	2000      	movs	r0, #0
 80027e6:	6360      	str	r0, [r4, #52]	; 0x34
 80027e8:	e7c0      	b.n	800276c <__sflush_r+0x1c>
 80027ea:	2301      	movs	r3, #1
 80027ec:	4628      	mov	r0, r5
 80027ee:	47b0      	blx	r6
 80027f0:	1c41      	adds	r1, r0, #1
 80027f2:	d1c8      	bne.n	8002786 <__sflush_r+0x36>
 80027f4:	682b      	ldr	r3, [r5, #0]
 80027f6:	2b00      	cmp	r3, #0
 80027f8:	d0c5      	beq.n	8002786 <__sflush_r+0x36>
 80027fa:	2b1d      	cmp	r3, #29
 80027fc:	d001      	beq.n	8002802 <__sflush_r+0xb2>
 80027fe:	2b16      	cmp	r3, #22
 8002800:	d101      	bne.n	8002806 <__sflush_r+0xb6>
 8002802:	602f      	str	r7, [r5, #0]
 8002804:	e7b1      	b.n	800276a <__sflush_r+0x1a>
 8002806:	89a3      	ldrh	r3, [r4, #12]
 8002808:	f043 0340 	orr.w	r3, r3, #64	; 0x40
 800280c:	81a3      	strh	r3, [r4, #12]
 800280e:	e7ad      	b.n	800276c <__sflush_r+0x1c>
 8002810:	690f      	ldr	r7, [r1, #16]
 8002812:	2f00      	cmp	r7, #0
 8002814:	d0a9      	beq.n	800276a <__sflush_r+0x1a>
 8002816:	0793      	lsls	r3, r2, #30
 8002818:	bf18      	it	ne
 800281a:	2300      	movne	r3, #0
 800281c:	680e      	ldr	r6, [r1, #0]
 800281e:	bf08      	it	eq
 8002820:	694b      	ldreq	r3, [r1, #20]
 8002822:	eba6 0807 	sub.w	r8, r6, r7
 8002826:	600f      	str	r7, [r1, #0]
 8002828:	608b      	str	r3, [r1, #8]
 800282a:	f1b8 0f00 	cmp.w	r8, #0
 800282e:	dd9c      	ble.n	800276a <__sflush_r+0x1a>
 8002830:	4643      	mov	r3, r8
 8002832:	463a      	mov	r2, r7
 8002834:	6a21      	ldr	r1, [r4, #32]
 8002836:	4628      	mov	r0, r5
 8002838:	6aa6      	ldr	r6, [r4, #40]	; 0x28
 800283a:	47b0      	blx	r6
 800283c:	2800      	cmp	r0, #0
 800283e:	dc06      	bgt.n	800284e <__sflush_r+0xfe>
 8002840:	89a3      	ldrh	r3, [r4, #12]
 8002842:	f043 0340 	orr.w	r3, r3, #64	; 0x40
 8002846:	81a3      	strh	r3, [r4, #12]
 8002848:	f04f 30ff 	mov.w	r0, #4294967295	; 0xffffffff
 800284c:	e78e      	b.n	800276c <__sflush_r+0x1c>
 800284e:	4407      	add	r7, r0
 8002850:	eba8 0800 	sub.w	r8, r8, r0
 8002854:	e7e9      	b.n	800282a <__sflush_r+0xda>
 8002856:	bf00      	nop
 8002858:	20400001 	.word	0x20400001

0800285c <_fflush_r>:
 800285c:	b538      	push	{r3, r4, r5, lr}
 800285e:	690b      	ldr	r3, [r1, #16]
 8002860:	4605      	mov	r5, r0
 8002862:	460c      	mov	r4, r1
 8002864:	b1db      	cbz	r3, 800289e <_fflush_r+0x42>
 8002866:	b118      	cbz	r0, 8002870 <_fflush_r+0x14>
 8002868:	6983      	ldr	r3, [r0, #24]
 800286a:	b90b      	cbnz	r3, 8002870 <_fflush_r+0x14>
 800286c:	f7ff fa90 	bl	8001d90 <__sinit>
 8002870:	4b0c      	ldr	r3, [pc, #48]	; (80028a4 <_fflush_r+0x48>)
 8002872:	429c      	cmp	r4, r3
 8002874:	d109      	bne.n	800288a <_fflush_r+0x2e>
 8002876:	686c      	ldr	r4, [r5, #4]
 8002878:	f9b4 300c 	ldrsh.w	r3, [r4, #12]
 800287c:	b17b      	cbz	r3, 800289e <_fflush_r+0x42>
 800287e:	4621      	mov	r1, r4
 8002880:	4628      	mov	r0, r5
 8002882:	e8bd 4038 	ldmia.w	sp!, {r3, r4, r5, lr}
 8002886:	f7ff bf63 	b.w	8002750 <__sflush_r>
 800288a:	4b07      	ldr	r3, [pc, #28]	; (80028a8 <_fflush_r+0x4c>)
 800288c:	429c      	cmp	r4, r3
 800288e:	d101      	bne.n	8002894 <_fflush_r+0x38>
 8002890:	68ac      	ldr	r4, [r5, #8]
 8002892:	e7f1      	b.n	8002878 <_fflush_r+0x1c>
 8002894:	4b05      	ldr	r3, [pc, #20]	; (80028ac <_fflush_r+0x50>)
 8002896:	429c      	cmp	r4, r3
 8002898:	bf08      	it	eq
 800289a:	68ec      	ldreq	r4, [r5, #12]
 800289c:	e7ec      	b.n	8002878 <_fflush_r+0x1c>
 800289e:	2000      	movs	r0, #0
 80028a0:	bd38      	pop	{r3, r4, r5, pc}
 80028a2:	bf00      	nop
 80028a4:	08002b30 	.word	0x08002b30
 80028a8:	08002b50 	.word	0x08002b50
 80028ac:	08002b10 	.word	0x08002b10

080028b0 <_lseek_r>:
 80028b0:	b538      	push	{r3, r4, r5, lr}
 80028b2:	4605      	mov	r5, r0
 80028b4:	4608      	mov	r0, r1
 80028b6:	4611      	mov	r1, r2
 80028b8:	2200      	movs	r2, #0
 80028ba:	4c05      	ldr	r4, [pc, #20]	; (80028d0 <_lseek_r+0x20>)
 80028bc:	6022      	str	r2, [r4, #0]
 80028be:	461a      	mov	r2, r3
 80028c0:	f7ff f970 	bl	8001ba4 <_lseek>
 80028c4:	1c43      	adds	r3, r0, #1
 80028c6:	d102      	bne.n	80028ce <_lseek_r+0x1e>
 80028c8:	6823      	ldr	r3, [r4, #0]
 80028ca:	b103      	cbz	r3, 80028ce <_lseek_r+0x1e>
 80028cc:	602b      	str	r3, [r5, #0]
 80028ce:	bd38      	pop	{r3, r4, r5, pc}
 80028d0:	20000158 	.word	0x20000158

080028d4 <__swhatbuf_r>:
 80028d4:	b570      	push	{r4, r5, r6, lr}
 80028d6:	460e      	mov	r6, r1
 80028d8:	f9b1 100e 	ldrsh.w	r1, [r1, #14]
 80028dc:	b096      	sub	sp, #88	; 0x58
 80028de:	2900      	cmp	r1, #0
 80028e0:	4614      	mov	r4, r2
 80028e2:	461d      	mov	r5, r3
 80028e4:	da07      	bge.n	80028f6 <__swhatbuf_r+0x22>
 80028e6:	2300      	movs	r3, #0
 80028e8:	602b      	str	r3, [r5, #0]
 80028ea:	89b3      	ldrh	r3, [r6, #12]
 80028ec:	061a      	lsls	r2, r3, #24
 80028ee:	d410      	bmi.n	8002912 <__swhatbuf_r+0x3e>
 80028f0:	f44f 6380 	mov.w	r3, #1024	; 0x400
 80028f4:	e00e      	b.n	8002914 <__swhatbuf_r+0x40>
 80028f6:	466a      	mov	r2, sp
 80028f8:	f000 f8be 	bl	8002a78 <_fstat_r>
 80028fc:	2800      	cmp	r0, #0
 80028fe:	dbf2      	blt.n	80028e6 <__swhatbuf_r+0x12>
 8002900:	9a01      	ldr	r2, [sp, #4]
 8002902:	f402 4270 	and.w	r2, r2, #61440	; 0xf000
 8002906:	f5a2 5300 	sub.w	r3, r2, #8192	; 0x2000
 800290a:	425a      	negs	r2, r3
 800290c:	415a      	adcs	r2, r3
 800290e:	602a      	str	r2, [r5, #0]
 8002910:	e7ee      	b.n	80028f0 <__swhatbuf_r+0x1c>
 8002912:	2340      	movs	r3, #64	; 0x40
 8002914:	2000      	movs	r0, #0
 8002916:	6023      	str	r3, [r4, #0]
 8002918:	b016      	add	sp, #88	; 0x58
 800291a:	bd70      	pop	{r4, r5, r6, pc}

0800291c <__smakebuf_r>:
 800291c:	898b      	ldrh	r3, [r1, #12]
 800291e:	b573      	push	{r0, r1, r4, r5, r6, lr}
 8002920:	079d      	lsls	r5, r3, #30
 8002922:	4606      	mov	r6, r0
 8002924:	460c      	mov	r4, r1
 8002926:	d507      	bpl.n	8002938 <__smakebuf_r+0x1c>
 8002928:	f104 0347 	add.w	r3, r4, #71	; 0x47
 800292c:	6023      	str	r3, [r4, #0]
 800292e:	6123      	str	r3, [r4, #16]
 8002930:	2301      	movs	r3, #1
 8002932:	6163      	str	r3, [r4, #20]
 8002934:	b002      	add	sp, #8
 8002936:	bd70      	pop	{r4, r5, r6, pc}
 8002938:	ab01      	add	r3, sp, #4
 800293a:	466a      	mov	r2, sp
 800293c:	f7ff ffca 	bl	80028d4 <__swhatbuf_r>
 8002940:	9900      	ldr	r1, [sp, #0]
 8002942:	4605      	mov	r5, r0
 8002944:	4630      	mov	r0, r6
 8002946:	f7ff faad 	bl	8001ea4 <_malloc_r>
 800294a:	b948      	cbnz	r0, 8002960 <__smakebuf_r+0x44>
 800294c:	f9b4 300c 	ldrsh.w	r3, [r4, #12]
 8002950:	059a      	lsls	r2, r3, #22
 8002952:	d4ef      	bmi.n	8002934 <__smakebuf_r+0x18>
 8002954:	f023 0303 	bic.w	r3, r3, #3
 8002958:	f043 0302 	orr.w	r3, r3, #2
 800295c:	81a3      	strh	r3, [r4, #12]
 800295e:	e7e3      	b.n	8002928 <__smakebuf_r+0xc>
 8002960:	4b0d      	ldr	r3, [pc, #52]	; (8002998 <__smakebuf_r+0x7c>)
 8002962:	62b3      	str	r3, [r6, #40]	; 0x28
 8002964:	89a3      	ldrh	r3, [r4, #12]
 8002966:	6020      	str	r0, [r4, #0]
 8002968:	f043 0380 	orr.w	r3, r3, #128	; 0x80
 800296c:	81a3      	strh	r3, [r4, #12]
 800296e:	9b00      	ldr	r3, [sp, #0]
 8002970:	6120      	str	r0, [r4, #16]
 8002972:	6163      	str	r3, [r4, #20]
 8002974:	9b01      	ldr	r3, [sp, #4]
 8002976:	b15b      	cbz	r3, 8002990 <__smakebuf_r+0x74>
 8002978:	f9b4 100e 	ldrsh.w	r1, [r4, #14]
 800297c:	4630      	mov	r0, r6
 800297e:	f000 f88d 	bl	8002a9c <_isatty_r>
 8002982:	b128      	cbz	r0, 8002990 <__smakebuf_r+0x74>
 8002984:	89a3      	ldrh	r3, [r4, #12]
 8002986:	f023 0303 	bic.w	r3, r3, #3
 800298a:	f043 0301 	orr.w	r3, r3, #1
 800298e:	81a3      	strh	r3, [r4, #12]
 8002990:	89a3      	ldrh	r3, [r4, #12]
 8002992:	431d      	orrs	r5, r3
 8002994:	81a5      	strh	r5, [r4, #12]
 8002996:	e7cd      	b.n	8002934 <__smakebuf_r+0x18>
 8002998:	08001d59 	.word	0x08001d59

0800299c <memchr>:
 800299c:	b510      	push	{r4, lr}
 800299e:	b2c9      	uxtb	r1, r1
 80029a0:	4402      	add	r2, r0
 80029a2:	4290      	cmp	r0, r2
 80029a4:	4603      	mov	r3, r0
 80029a6:	d101      	bne.n	80029ac <memchr+0x10>
 80029a8:	2300      	movs	r3, #0
 80029aa:	e003      	b.n	80029b4 <memchr+0x18>
 80029ac:	781c      	ldrb	r4, [r3, #0]
 80029ae:	3001      	adds	r0, #1
 80029b0:	428c      	cmp	r4, r1
 80029b2:	d1f6      	bne.n	80029a2 <memchr+0x6>
 80029b4:	4618      	mov	r0, r3
 80029b6:	bd10      	pop	{r4, pc}

080029b8 <__malloc_lock>:
 80029b8:	4770      	bx	lr

080029ba <__malloc_unlock>:
 80029ba:	4770      	bx	lr

080029bc <_free_r>:
 80029bc:	b538      	push	{r3, r4, r5, lr}
 80029be:	4605      	mov	r5, r0
 80029c0:	2900      	cmp	r1, #0
 80029c2:	d043      	beq.n	8002a4c <_free_r+0x90>
 80029c4:	f851 3c04 	ldr.w	r3, [r1, #-4]
 80029c8:	1f0c      	subs	r4, r1, #4
 80029ca:	2b00      	cmp	r3, #0
 80029cc:	bfb8      	it	lt
 80029ce:	18e4      	addlt	r4, r4, r3
 80029d0:	f7ff fff2 	bl	80029b8 <__malloc_lock>
 80029d4:	4a1e      	ldr	r2, [pc, #120]	; (8002a50 <_free_r+0x94>)
 80029d6:	6813      	ldr	r3, [r2, #0]
 80029d8:	4610      	mov	r0, r2
 80029da:	b933      	cbnz	r3, 80029ea <_free_r+0x2e>
 80029dc:	6063      	str	r3, [r4, #4]
 80029de:	6014      	str	r4, [r2, #0]
 80029e0:	4628      	mov	r0, r5
 80029e2:	e8bd 4038 	ldmia.w	sp!, {r3, r4, r5, lr}
 80029e6:	f7ff bfe8 	b.w	80029ba <__malloc_unlock>
 80029ea:	42a3      	cmp	r3, r4
 80029ec:	d90b      	bls.n	8002a06 <_free_r+0x4a>
 80029ee:	6821      	ldr	r1, [r4, #0]
 80029f0:	1862      	adds	r2, r4, r1
 80029f2:	4293      	cmp	r3, r2
 80029f4:	bf01      	itttt	eq
 80029f6:	681a      	ldreq	r2, [r3, #0]
 80029f8:	685b      	ldreq	r3, [r3, #4]
 80029fa:	1852      	addeq	r2, r2, r1
 80029fc:	6022      	streq	r2, [r4, #0]
 80029fe:	6063      	str	r3, [r4, #4]
 8002a00:	6004      	str	r4, [r0, #0]
 8002a02:	e7ed      	b.n	80029e0 <_free_r+0x24>
 8002a04:	4613      	mov	r3, r2
 8002a06:	685a      	ldr	r2, [r3, #4]
 8002a08:	b10a      	cbz	r2, 8002a0e <_free_r+0x52>
 8002a0a:	42a2      	cmp	r2, r4
 8002a0c:	d9fa      	bls.n	8002a04 <_free_r+0x48>
 8002a0e:	6819      	ldr	r1, [r3, #0]
 8002a10:	1858      	adds	r0, r3, r1
 8002a12:	42a0      	cmp	r0, r4
 8002a14:	d10b      	bne.n	8002a2e <_free_r+0x72>
 8002a16:	6820      	ldr	r0, [r4, #0]
 8002a18:	4401      	add	r1, r0
 8002a1a:	1858      	adds	r0, r3, r1
 8002a1c:	4282      	cmp	r2, r0
 8002a1e:	6019      	str	r1, [r3, #0]
 8002a20:	d1de      	bne.n	80029e0 <_free_r+0x24>
 8002a22:	6810      	ldr	r0, [r2, #0]
 8002a24:	6852      	ldr	r2, [r2, #4]
 8002a26:	4401      	add	r1, r0
 8002a28:	6019      	str	r1, [r3, #0]
 8002a2a:	605a      	str	r2, [r3, #4]
 8002a2c:	e7d8      	b.n	80029e0 <_free_r+0x24>
 8002a2e:	d902      	bls.n	8002a36 <_free_r+0x7a>
 8002a30:	230c      	movs	r3, #12
 8002a32:	602b      	str	r3, [r5, #0]
 8002a34:	e7d4      	b.n	80029e0 <_free_r+0x24>
 8002a36:	6820      	ldr	r0, [r4, #0]
 8002a38:	1821      	adds	r1, r4, r0
 8002a3a:	428a      	cmp	r2, r1
 8002a3c:	bf01      	itttt	eq
 8002a3e:	6811      	ldreq	r1, [r2, #0]
 8002a40:	6852      	ldreq	r2, [r2, #4]
 8002a42:	1809      	addeq	r1, r1, r0
 8002a44:	6021      	streq	r1, [r4, #0]
 8002a46:	6062      	str	r2, [r4, #4]
 8002a48:	605c      	str	r4, [r3, #4]
 8002a4a:	e7c9      	b.n	80029e0 <_free_r+0x24>
 8002a4c:	bd38      	pop	{r3, r4, r5, pc}
 8002a4e:	bf00      	nop
 8002a50:	20000094 	.word	0x20000094

08002a54 <_read_r>:
 8002a54:	b538      	push	{r3, r4, r5, lr}
 8002a56:	4605      	mov	r5, r0
 8002a58:	4608      	mov	r0, r1
 8002a5a:	4611      	mov	r1, r2
 8002a5c:	2200      	movs	r2, #0
 8002a5e:	4c05      	ldr	r4, [pc, #20]	; (8002a74 <_read_r+0x20>)
 8002a60:	6022      	str	r2, [r4, #0]
 8002a62:	461a      	mov	r2, r3
 8002a64:	f7ff f876 	bl	8001b54 <_read>
 8002a68:	1c43      	adds	r3, r0, #1
 8002a6a:	d102      	bne.n	8002a72 <_read_r+0x1e>
 8002a6c:	6823      	ldr	r3, [r4, #0]
 8002a6e:	b103      	cbz	r3, 8002a72 <_read_r+0x1e>
 8002a70:	602b      	str	r3, [r5, #0]
 8002a72:	bd38      	pop	{r3, r4, r5, pc}
 8002a74:	20000158 	.word	0x20000158

08002a78 <_fstat_r>:
 8002a78:	b538      	push	{r3, r4, r5, lr}
 8002a7a:	2300      	movs	r3, #0
 8002a7c:	4c06      	ldr	r4, [pc, #24]	; (8002a98 <_fstat_r+0x20>)
 8002a7e:	4605      	mov	r5, r0
 8002a80:	4608      	mov	r0, r1
 8002a82:	4611      	mov	r1, r2
 8002a84:	6023      	str	r3, [r4, #0]
 8002a86:	f7ff f885 	bl	8001b94 <_fstat>
 8002a8a:	1c43      	adds	r3, r0, #1
 8002a8c:	d102      	bne.n	8002a94 <_fstat_r+0x1c>
 8002a8e:	6823      	ldr	r3, [r4, #0]
 8002a90:	b103      	cbz	r3, 8002a94 <_fstat_r+0x1c>
 8002a92:	602b      	str	r3, [r5, #0]
 8002a94:	bd38      	pop	{r3, r4, r5, pc}
 8002a96:	bf00      	nop
 8002a98:	20000158 	.word	0x20000158

08002a9c <_isatty_r>:
 8002a9c:	b538      	push	{r3, r4, r5, lr}
 8002a9e:	2300      	movs	r3, #0
 8002aa0:	4c05      	ldr	r4, [pc, #20]	; (8002ab8 <_isatty_r+0x1c>)
 8002aa2:	4605      	mov	r5, r0
 8002aa4:	4608      	mov	r0, r1
 8002aa6:	6023      	str	r3, [r4, #0]
 8002aa8:	f7ff f87a 	bl	8001ba0 <_isatty>
 8002aac:	1c43      	adds	r3, r0, #1
 8002aae:	d102      	bne.n	8002ab6 <_isatty_r+0x1a>
 8002ab0:	6823      	ldr	r3, [r4, #0]
 8002ab2:	b103      	cbz	r3, 8002ab6 <_isatty_r+0x1a>
 8002ab4:	602b      	str	r3, [r5, #0]
 8002ab6:	bd38      	pop	{r3, r4, r5, pc}
 8002ab8:	20000158 	.word	0x20000158

08002abc <_init>:
 8002abc:	b5f8      	push	{r3, r4, r5, r6, r7, lr}
 8002abe:	bf00      	nop
 8002ac0:	bcf8      	pop	{r3, r4, r5, r6, r7}
 8002ac2:	bc08      	pop	{r3}
 8002ac4:	469e      	mov	lr, r3
 8002ac6:	4770      	bx	lr

08002ac8 <_fini>:
 8002ac8:	b5f8      	push	{r3, r4, r5, r6, r7, lr}
 8002aca:	bf00      	nop
 8002acc:	bcf8      	pop	{r3, r4, r5, r6, r7}
 8002ace:	bc08      	pop	{r3}
 8002ad0:	469e      	mov	lr, r3
 8002ad2:	4770      	bx	lr
